PC-72 ASSEMBLER VERSION 1.05        A72.ASM         1

0100              1             PAGE    64
0100              2             ORG     100H
0100              3     LSTWID  EQU     6
0100              4     LSTTAB  EQU     12H
0100              5     MAXLEN  EQU     100H
0100              6     DEFORG  EQU     100H
0100              7     DEFPAG  EQU     50
0100              8     PGMVAR  EQU     BUF5
0100              9     USER    EQU     BUF5+80H
0100              10    FUNC    EQU     USER
0100              11    TXTBUF  EQU     USER+2
0100              12    BINBUF  EQU     USER+4
0100              13    PC      EQU     USER+6
0100              14    USIZE   EQU     USER+8
0100              15    VORG    EQU     USER+0AH
0100              16    SYM     EQU     USER+0CH
0100              17    STK     EQU     USER+0EH
0100              18    WADJ    EQU     USER+10H
0100              19    ARGS    EQU     USER+12H
0100              20    FLAGS   EQU     USER+16H
0100              21    SEGPREF EQU     USER+17H
0100              22    OPCODE  EQU     USER+18H
0100              23    MODRM   EQU     USER+19H
0100              24    DISP    EQU     USER+1AH
0100              25    IMM     EQU     USER+1CH
0100              26    BINLEN  EQU     USER+1EH
0100              27    TXTLEN  EQU     USER+20H
0100              28    OUTHDL  EQU     PGMVAR
0100              29    LSTHDL  EQU     PGMVAR+2
0100              30    INCLEV  EQU     PGMVAR+4
0100              31    ERRORS  EQU     PGMVAR+6
0100              32    TEMP    EQU     PGMVAR+8
0100              33    PASS    EQU     PGMVAR+0AH
0100              34    OLDPC   EQU     PGMVAR+0CH
0100              35    PAGNUM  EQU     PGMVAR+0EH
0100              36    LSTLIN  EQU     PGMVAR+10H
0100              37    INFN    EQU     BUF4
0100              38    OUTFN   EQU     BUF4+40H
0100              39    LSTFN   EQU     BUF4+80H
0100              40    DEFFN   EQU     BUF4+0C0H
0100 B409         41    START:  MOV     AH,9
0102 BA3F1E       42            MOV     DX,AMSG
0105 CD21         43            INT     21H
0107 B430         44            MOV     AH,30H
0109 CD21         45            INT     21H
010B 84C0         46            TEST    AL,AL
010D 751A         47            JNZ     MAIN
010F B409         48            MOV     AH,9
0111 BA5F1E       49            MOV     DX,DOSERR
0114 CD21         50            INT     21H
0116 CD20         51            INT     20H
0118 B409         52    ERROR:  MOV     AH,9
011A CD21         53            INT     21H
011C B8004C       54            MOV     AX,4C00H
011F CD21         55            INT     21H
0121 E86E05       56    BAH:    CALL    CLOSE
0124 B8014C       57    OVER:   MOV     AX,4C01H
0127 CD21         58            INT     21H
0129 E85606       59    MAIN:   CALL    INIT
012C BE8100       60            MOV     SI,81H
012F E89A00       61            CALL    PARAM
0132 72E4         62            JC      ERROR
0134 E88F05       63            CALL    OPEN
0137 72EB         64            JC      OVER
PC-72 ASSEMBLER VERSION 1.05        A72.ASM         2

0139 8B3E5D23     65            MOV     DI,[TEMP]
013D BE341E       66            MOV     SI,INM
0140 E8EF01       67            CALL    WRM
0143 BE5522       68            MOV     SI,INFN
0146 E8E901       69            CALL    WRM
0149 E81D06       70            CALL    PRUNT
014C FF36D523     71            PUSH    WORD [FUNC]
0150 8B3E5D23     72    RUN:    MOV     DI,[TEMP]
0154 BE2E1E       73            MOV     SI,PASSM
0157 E8D801       74            CALL    WRM
015A A15F23       75            MOV     AX,[PASS]
015D B90A00       76            MOV     CX,10
0160 E8B407       77            CALL    WN
0163 E80306       78            CALL    PRUNT
0166 FF065F23     79            INC     WORD [PASS]
016A E83401       80            CALL    PROCF
016D 72B2         81            JC      BAH
016F A15B23       82            MOV     AX,[ERRORS]
0172 85C0         83            TEST    AX,AX
0174 7541         84            JNZ     HUMBUG
0176 A1D523       85            MOV     AX,[FUNC]
0179 30C0         86            XOR     AL,AL
017B 86E0         87            XCHG    AL,AH
017D A3D523       88            MOV     [FUNC],AX
0180 84C0         89            TEST    AL,AL
0182 75CC         90            JNZ     RUN
0184 8F06D523     91            POP     WORD [FUNC]
0188 8B3E5D23     92            MOV     DI,[TEMP]
018C BE391E       93            MOV     SI,OUTM
018F E8A001       94            CALL    WRM
0192 B81010       95            MOV     AX,1010H
0195 BE9522       96            MOV     SI,OUTFN
0198 E82400       97            CALL    NOTHER
019B F706D5238080 98            TEST    WORD [FUNC],8080H
01A1 7509         99            JNZ     NOWLST
01A3 B84040       100           MOV     AX,4040H
01A6 BED522       101           MOV     SI,LSTFN
01A9 E81300       102           CALL    NOTHER
01AC E8BA05       103   NOWLST: CALL    PRUNT
01AF E8E004       104           CALL    CLOSE
01B2 B8004C       105           MOV     AX,4C00H
01B5 CD21         106           INT     21H
01B7 E8D804       107   HUMBUG: CALL    CLOSE
01BA B8024C       108           MOV     AX,4C02H
01BD CD21         109           INT     21H
01BF 8506D523     110   NOTHER: TEST    [FUNC],AX
01C3 7406         111           JZ      NOTH0
01C5 E86A01       112           CALL    WRM
01C8 B020         113           MOV     AL,20H
01CA AA           114           STOSB
01CB C3           115   NOTH0:  RET
01CC E88201       116   PARAM:  CALL    RFN
01CF 722D         117           JC      PARASC
01D1 7503         118           JNZ     PARAIN
01D3 E97800       119           JMP     PARAEN
01D6 BF5522       120   PARAIN: MOV     DI,INFN
01D9 8A05         121           MOV     AL,[DI]
01DB 84C0         122           TEST    AL,AL
01DD 7548         123           JNZ     PARARG
01DF 89F2         124   PARAWF: MOV     DX,SI
01E1 E85701       125           CALL    WFN
01E4 A01523       126           MOV     AL,[DEFFN]
01E7 84C0         127           TEST    AL,AL
01E9 75E1         128           JNZ     PARAM
PC-72 ASSEMBLER VERSION 1.05        A72.ASM         3

01EB 56           129           PUSH    SI
01EC 89D6         130           MOV     SI,DX
01EE BF1523       131           MOV     DI,DEFFN
01F1 E84701       132           CALL    WFN
01F4 BE1523       133           MOV     SI,DEFFN
01F7 F9           134           STC
01F8 E88401       135           CALL    ADDEX
01FB 5E           136           POP     SI
01FC EBCE         137           JMP     SHORT PARAM
01FE BFD522       138   PARASC: MOV     DI,LSTFN
0201 BA0142       139           MOV     DX,4201H
0204 3C4C         140           CMP     AL,4CH
0206 7424         141           JZ      PARAFN
0208 BF9522       142           MOV     DI,OUTFN
020B BAD000       143           MOV     DX,0D0H
020E 3C44         144           CMP     AL,44H
0210 741A         145           JZ      PARAFN
0212 BA9000       146           MOV     DX,90H
0215 3C55         147           CMP     AL,55H
0217 7413         148           JZ      PARAFN
0219 BA0112       149           MOV     DX,1201H
021C 3C41         150           CMP     AL,41H
021E 740C         151           JZ      PARAFN
0220 BFDD1C       152           MOV     DI,ORIGIN
0223 3C4F         153           CMP     AL,4FH
0225 7413         154           JZ      PARARN
0227 BA851E       155   PARARG: MOV     DX,USAGE
022A F9           156           STC
022B C3           157           RET
022C 0916D523     158   PARAFN: OR      [FUNC],DX
0230 E81E01       159           CALL    RFN
0233 72C9         160           JC      PARASC
0235 7417         161           JZ      PARAEN
0237 E9A5FF       162           JMP     PARAWF
023A E8EA05       163   PARARN: CALL    CC
023D 740A         164           JZ      PARANO
023F E8D209       165           CALL    RNC
0242 7205         166           JC      PARANO
0244 8915         167           MOV     [DI],DX
0246 E983FF       168           JMP     PARAM
0249 BA711E       169   PARANO: MOV     DX,NOPAR
024C F9           170           STC
024D C3           171           RET
024E A01523       172   PARAEN: MOV     AL,[DEFFN]
0251 84C0         173           TEST    AL,AL
0253 74F4         174           JZ      PARANO
0255 A1D523       175           MOV     AX,[FUNC]
0258 85C0         176           TEST    AX,AX
025A 7506         177           JNZ     PARAFS
025C B80112       178           MOV     AX,1201H
025F A3D523       179           MOV     [FUNC],AX
0262 BD261E       180   PARAFS: MOV     BP,DOTCOM
0265 BA221E       181           MOV     DX,DOTASM
0268 BF5522       182           MOV     DI,INFN
026B A98080       183           TEST    AX,8080H
026E 7402         184           JZ      PARANS
0270 87D5         185           XCHG    BP,DX
0272 BE1523       186   PARANS: MOV     SI,DEFFN
0275 E8EC00       187           CALL    RFN2
0278 E80E00       188           CALL    PARAWN
027B 89EA         189           MOV     DX,BP
027D BF9522       190           MOV     DI,OUTFN
0280 E80600       191           CALL    PARAWN
0283 BA2A1E       192           MOV     DX,DOTLST
PC-72 ASSEMBLER VERSION 1.05        A72.ASM         4

0286 BFD522       193           MOV     DI,LSTFN
0289 53           194   PARAWN: PUSH    BX
028A 56           195           PUSH    SI
028B 57           196           PUSH    DI
028C 8B05         197           MOV     AX,[DI]
028E 84C0         198           TEST    AL,AL
0290 7503         199           JNZ     PARANX
0292 E8A600       200           CALL    WFN
0295 5E           201   PARANX: POP     SI
0296 E8CB00       202           CALL    RFN2
0299 F8           203           CLC
029A E8E200       204           CALL    ADDEX
029D 5E           205           POP     SI
029E 5B           206           POP     BX
029F F8           207           CLC
02A0 C3           208           RET
02A1 A1DD1C       209   PROCF:  MOV     AX,[ORIGIN]
02A4 A3DF23       210           MOV     [VORG],AX
02A7 31C0         211           XOR     AX,AX
02A9 A3DB23       212           MOV     [PC],AX
02AC A3DD23       213           MOV     [USIZE],AX
02AF A35B23       214           MOV     [ERRORS],AX
02B2 A36523       215           MOV     [LSTLIN],AX
02B5 A35525       216           MOV     [BUF7],AX
02B8 40           217           INC     AX
02B9 A36323       218           MOV     [PAGNUM],AX
02BC E8EC00       219           CALL    CALF
02BF AD           220           LODSW
02C0 BB0042       221           MOV     BX,4200H
02C3 93           222           XCHG    AX,BX
02C4 31C9         223           XOR     CX,CX
02C6 31D2         224           XOR     DX,DX
02C8 8914         225           MOV     [SI],DX
02CA CD21         226           INT     21H
02CC E8BA02       227   PROCF1: CALL    READ
02CF 761B         228           JBE     PROCF3
02D1 A1DB23       229           MOV     AX,[PC]
02D4 A36123       230           MOV     [OLDPC],AX
02D7 E86E08       231           CALL    ASM
02DA 7217         232           JC      PROCF4
02DC E82901       233           CALL    WLST
02DF 7205         234           JC      PROCF2
02E1 E84503       235           CALL    WRITE
02E4 73E6         236           JNC     PROCF1
02E6 E80801       237   PROCF2: CALL    DECF
02E9 73FB         238           JNC     PROCF2
02EB C3           239           RET
02EC E80201       240   PROCF3: CALL    DECF
02EF 73DB         241           JNC     PROCF1
02F1 F8           242           CLC
02F2 C3           243           RET
02F3 84C0         244   PROCF4: TEST    AL,AL
02F5 7920         245           JNS     PROCF6
02F7 98           246           CBW
02F8 40           247           INC     AX
02F9 74F1         248           JZ      PROCF3
02FB F7D8         249           NEG     AX
02FD 48           250           DEC     AX
02FE 7503         251           JNZ     PROCF5
0300 E80501       252           CALL    WLST
0303 50           253   PROCF5: PUSH    AX
0304 BFE11C       254           MOV     DI,ADIR
0307 D1E0         255           SHL     AX,1
0309 01C7         256           ADD     DI,AX
PC-72 ASSEMBLER VERSION 1.05        A72.ASM         5

030B FF15         257           CALL    [DI]
030D 59           258           POP     CX
030E 7207         259           JC      PROCF6
0310 E3BA         260           JCXZ    PROCF1
0312 E8F300       261           CALL    WLST
0315 EBB5         262           JMP     SHORT PROCF1
0317 E8EE00       263   PROCF6: CALL    WLST
031A E8F603       264           CALL    SCREAM
031D FF065B23     265           INC     WORD [ERRORS]
0321 A0D523       266           MOV     AL,[FUNC]
0324 A840         267           TEST    AL,40H
0326 74A4         268           JZ      PROCF1
0328 B440         269           MOV     AH,40H
032A 8B1E5723     270           MOV     BX,[LSTHDL]
032E CD21         271           INT     21H
0330 EB9A         272           JMP     SHORT PROCF1
0332 FC           273   WRM:    CLD
0333 AC           274   WRML:   LODSB
0334 AA           275           STOSB
0335 84C0         276           TEST    AL,AL
0337 75FA         277           JNZ     WRML
0339 4F           278           DEC     DI
033A C3           279           RET
033B FC           280   WFN:    CLD
033C 53           281           PUSH    BX
033D AC           282   WFN1:   LODSB
033E 3C61         283           CMP     AL,61H
0340 7206         284           JC      WFN2
0342 3C7B         285           CMP     AL,7BH
0344 7302         286           JNC     WFN2
0346 24DF         287           AND     AL,0DFH
0348 AA           288   WFN2:   STOSB
0349 4B           289           DEC     BX
034A 75F1         290           JNZ     WFN1
034C 30C0         291           XOR     AL,AL
034E AA           292           STOSB
034F 5B           293           POP     BX
0350 C3           294           RET
0351 FC           295   RFN:    CLD
0352 AC           296   RFN1:   LODSB
0353 84C0         297           TEST    AL,AL
0355 7422         298           JZ      RFN0
0357 3C0D         299           CMP     AL,0DH
0359 741E         300           JZ      RFN0
035B 3C21         301           CMP     AL,21H
035D 72F3         302           JC      RFN1
035F 3C2F         303           CMP     AL,2FH
0361 7417         304           JZ      RFN5
0363 4E           305           DEC     SI
0364 FC           306   RFN2:   CLD
0365 89F3         307           MOV     BX,SI
0367 AC           308   RFN3:   LODSB
0368 3C2F         309           CMP     AL,2FH
036A 7404         310           JZ      RFN4
036C 3C21         311           CMP     AL,21H
036E 73F7         312           JNC     RFN3
0370 4E           313   RFN4:   DEC     SI
0371 29DE         314           SUB     SI,BX
0373 87DE         315           XCHG    SI,BX
0375 8A04         316           MOV     AL,[SI]
0377 85DB         317           TEST    BX,BX
0379 C3           318   RFN0:   RET
037A AC           319   RFN5:   LODSB
037B 24DF         320           AND     AL,0DFH
PC-72 ASSEMBLER VERSION 1.05        A72.ASM         6

037D F9           321           STC
037E C3           322           RET
037F 9F           323   ADDEX:  LAHF
0380 8D38         324           LEA     DI,[BX+SI]
0382 B02E         325           MOV     AL,2EH
0384 89D9         326           MOV     CX,BX
0386 FD           327           STD
0387 F2AE         328           REPNZ   SCASB
0389 7506         329           JNZ     ADDEX1
038B 9E           330           SAHF
038C 7317         331           JNC     ADDEX0
038E 47           332           INC     DI
038F EB10         333           JMP     SHORT ADDEX3
0391 9E           334   ADDEX1: SAHF
0392 7211         335           JC      ADDEX0
0394 8D38         336           LEA     DI,[BX+SI]
0396 87D6         337           XCHG    SI,DX
0398 FC           338           CLD
0399 AA           339   ADDEX2: STOSB
039A AC           340           LODSB
039B 84C0         341           TEST    AL,AL
039D 75FA         342           JNZ     ADDEX2
039F 87D6         343           XCHG    SI,DX
03A1 89FB         344   ADDEX3: MOV     BX,DI
03A3 29F3         345           SUB     BX,SI
03A5 8D38         346   ADDEX0: LEA     DI,[BX+SI]
03A7 30C0         347           XOR     AL,AL
03A9 AA           348           STOSB
03AA C3           349           RET
03AB A15923       350   CALF:   MOV     AX,[INCLEV]
03AE 85C0         351           TEST    AX,AX
03B0 743D         352           JZ      CALF0
03B2 FC           353           CLD
03B3 48           354           DEC     AX
03B4 9C           355           PUSHF
03B5 86E0         356           XCHG    AL,AH
03B7 D1E8         357           SHR     AX,1
03B9 D1E8         358           SHR     AX,1
03BB BE5526       359           MOV     SI,INCBUF
03BE 01C6         360           ADD     SI,AX
03C0 9D           361           POPF
03C1 F8           362           CLC
03C2 C3           363           RET
03C3 FF065923     364   INCF:   INC     WORD [INCLEV]
03C7 89F7         365           MOV     DI,SI
03C9 E8DFFF       366           CALL    CALF
03CC 721D         367           JC      INCF0
03CE 87F7         368           XCHG    DI,SI
03D0 57           369           PUSH    DI
03D1 FC           370           CLD
03D2 31C0         371           XOR     AX,AX
03D4 AB           372           STOSW
03D5 AB           373           STOSW
03D6 89FA         374           MOV     DX,DI
03D8 E860FF       375           CALL    WFN
03DB B8003D       376           MOV     AX,3D00H
03DE CD21         377           INT     21H
03E0 5F           378           POP     DI
03E1 7208         379           JC      INCF0
03E3 AB           380           STOSW
03E4 A1DF1C       381           MOV     AX,[PAGLEN]
03E7 A36523       382           MOV     [LSTLIN],AX
03EA C3           383           RET
03EB FF0E5923     384   INCF0:  DEC     WORD [INCLEV]
PC-72 ASSEMBLER VERSION 1.05        A72.ASM         7

03EF F9           385   CALF0:  STC
03F0 C3           386           RET
03F1 E8B7FF       387   DECF:   CALL    CALF
03F4 76F9         388           JBE     CALF0
03F6 B43E         389           MOV     AH,3EH
03F8 8B1C         390           MOV     BX,[SI]
03FA CD21         391           INT     21H
03FC FF0E5923     392           DEC     WORD [INCLEV]
0400 A1DF1C       393           MOV     AX,[PAGLEN]
0403 A36523       394           MOV     [LSTLIN],AX
0406 F8           395           CLC
0407 C3           396           RET
0408 8926E323     397   WLST:   MOV     [STK],SP
040C 50           398           PUSH    AX
040D 52           399           PUSH    DX
040E 53           400           PUSH    BX
040F 56           401           PUSH    SI
0410 57           402           PUSH    DI
0411 8B36D923     403           MOV     SI,[BINBUF]
0415 8B3E5D23     404           MOV     DI,[TEMP]
0419 8B1EF323     405           MOV     BX,[BINLEN]
041D 8B166123     406           MOV     DX,[OLDPC]
0421 0316DF23     407           ADD     DX,[VORG]
0425 A0D523       408           MOV     AL,[FUNC]
0428 89FD         409           MOV     BP,DI
042A A8C0         410           TEST    AL,0C0H
042C 746F         411           JZ      WLSTE
042E A840         412           TEST    AL,40H
0430 7408         413           JZ      WLSTT
0432 E86F00       414           CALL    WLSTS
0435 E8A100       415           CALL    WLSTI
0438 89FD         416           MOV     BP,DI
043A 53           417   WLSTT:  PUSH    BX
043B 56           418           PUSH    SI
043C 8B36D723     419           MOV     SI,[TXTBUF]
0440 8B1EF523     420           MOV     BX,[TXTLEN]
0444 85DB         421           TEST    BX,BX
0446 7424         422           JZ      WLSTM
0448 AC           423   WLSTL:  LODSB
0449 84C0         424           TEST    AL,AL
044B 741F         425           JZ      WLSTM
044D 3C0D         426           CMP     AL,0DH
044F 741B         427           JZ      WLSTM
0451 3C0A         428           CMP     AL,0AH
0453 74F3         429           JZ      WLSTL
0455 3C09         430           CMP     AL,9
0457 750F         431           JNZ     WLSTN
0459 89F8         432           MOV     AX,DI
045B 29E8         433           SUB     AX,BP
045D 250700       434           AND     AX,7
0460 B90800       435           MOV     CX,8
0463 29C1         436           SUB     CX,AX
0465 B020         437           MOV     AL,20H
0467 F3           438           REPZ
0468 AA           439   WLSTN:  STOSB
0469 4B           440           DEC     BX
046A 75DC         441           JNZ     WLSTL
046C 5E           442   WLSTM:  POP     SI
046D 5B           443           POP     BX
046E B80D0A       444   WLSTB:  MOV     AX,0A0DH
0471 AB           445           STOSW
0472 52           446           PUSH    DX
0473 53           447           PUSH    BX
0474 56           448           PUSH    SI
PC-72 ASSEMBLER VERSION 1.05        A72.ASM         8

0475 E89000       449           CALL    WTITLE
0478 8B165D23     450           MOV     DX,[TEMP]
047C B440         451           MOV     AH,40H
047E 8B1E5723     452           MOV     BX,[LSTHDL]
0482 89F9         453           MOV     CX,DI
0484 29D1         454           SUB     CX,DX
0486 CD21         455           INT     21H
0488 7247         456           JC      WLSTF
048A 5E           457           POP     SI
048B 5B           458           POP     BX
048C 5A           459           POP     DX
048D A0D523       460           MOV     AL,[FUNC]
0490 A840         461           TEST    AL,40H
0492 7409         462           JZ      WLSTE
0494 8B3E5D23     463           MOV     DI,[TEMP]
0498 E80900       464           CALL    WLSTS
049B 75D1         465           JNZ     WLSTB
049D 5F           466   WLSTE:  POP     DI
049E 5E           467           POP     SI
049F 5B           468           POP     BX
04A0 5A           469           POP     DX
04A1 58           470           POP     AX
04A2 F8           471           CLC
04A3 C3           472           RET
04A4 88F0         473   WLSTS:  MOV     AL,DH
04A6 E81104       474           CALL    HALX
04A9 88D0         475           MOV     AL,DL
04AB E80C04       476           CALL    HALX
04AE 85DB         477           TEST    BX,BX
04B0 741E         478           JZ      WLSTX
04B2 89D9         479           MOV     CX,BX
04B4 83F906       480           CMP     CX,LSTWID
04B7 7203         481           JC      WLSTG
04B9 B90600       482           MOV     CX,LSTWID
04BC 29CB         483   WLSTG:  SUB     BX,CX
04BE 7302         484           JNC     WLSTR
04C0 31DB         485           XOR     BX,BX
04C2 01CA         486   WLSTR:  ADD     DX,CX
04C4 B020         487           MOV     AL,20H
04C6 FC           488           CLD
04C7 AA           489           STOSB
04C8 AC           490   WLSTP:  LODSB
04C9 E8EE03       491           CALL    HALX
04CC E2FA         492           LOOP    WLSTP
04CE 84C0         493           TEST    AL,AL
04D0 C3           494   WLSTX:  RET
04D1 BAD522       495   WLSTF:  MOV     DX,LSTFN
04D4 B00F         496           MOV     AL,0FH
04D6 E93A02       497           JMP     SCREAM
04D9 52           498   WLSTI:  PUSH    DX
04DA 53           499           PUSH    BX
04DB 56           500           PUSH    SI
04DC 8B0E5D23     501           MOV     CX,[TEMP]
04E0 29F9         502           SUB     CX,DI
04E2 83C112       503           ADD     CX,LSTTAB
04E5 B020         504           MOV     AL,20H
04E7 F3AA         505           REPZ    STOSB
04E9 E8BFFE       506           CALL    CALF
04EC 7216         507           JC      WLSTO
04EE 89FD         508           MOV     BP,DI
04F0 8B4402       509           MOV     AX,[SI+2]
04F3 B90A00       510           MOV     CX,10
04F6 E81E04       511           CALL    WN
04F9 89E9         512           MOV     CX,BP
PC-72 ASSEMBLER VERSION 1.05        A72.ASM         9

04FB 29F9         513           SUB     CX,DI
04FD 83C106       514           ADD     CX,6
0500 B020         515           MOV     AL,20H
0502 F3AA         516           REPZ    STOSB
0504 5E           517   WLSTO:  POP     SI
0505 5B           518           POP     BX
0506 5A           519           POP     DX
0507 C3           520           RET
0508 FC           521   WTITLE: CLD
0509 57           522           PUSH    DI
050A BF5524       523           MOV     DI,BUF6
050D A0D523       524           MOV     AL,[FUNC]
0510 A840         525           TEST    AL,40H
0512 746E         526           JZ      WTITL5
0514 A16523       527           MOV     AX,[LSTLIN]
0517 85C0         528           TEST    AX,AX
0519 7413         529           JZ      WTITL1
051B 3B06DF1C     530           CMP     AX,[PAGLEN]
051F 7261         531           JC      WTITL5
0521 FF066323     532           INC     WORD [PAGNUM]
0525 C70665230000 533           MOV     WORD [LSTLIN],0
052B B00C         534           MOV     AL,0CH
052D AA           535           STOSB
052E BEEB1C       536   WTITL1: MOV     SI,PGTTL
0531 E8FEFD       537           CALL    WRM
0534 B020         538           MOV     AL,20H
0536 B90800       539           MOV     CX,8
0539 F3AA         540           REPZ    STOSB
053B E86DFE       541           CALL    CALF
053E 7216         542           JC      WTITL3
0540 57           543           PUSH    DI
0541 83C604       544           ADD     SI,4
0544 E8EBFD       545           CALL    WRM
0547 59           546           POP     CX
0548 29F9         547           SUB     CX,DI
054A 83C110       548           ADD     CX,10H
054D 7903         549           JNS     WTITL2
054F B90100       550           MOV     CX,1
0552 B020         551   WTITL2: MOV     AL,20H
0554 F3AA         552           REPZ    STOSB
0556 A16323       553   WTITL3: MOV     AX,[PAGNUM]
0559 B90A00       554           MOV     CX,10
055C E8B803       555           CALL    WN
055F B80D0A       556           MOV     AX,0A0DH
0562 AB           557           STOSW
0563 BE5525       558           MOV     SI,BUF7
0566 F604FF       559           TEST    BYTE PTR [SI],0FFH
0569 7407         560           JZ      WTITL4
056B E8C4FD       561           CALL    WRM
056E B80D0A       562           MOV     AX,0A0DH
0571 AB           563           STOSW
0572 AB           564   WTITL4: STOSW
0573 BA5524       565           MOV     DX,BUF6
0576 89F9         566           MOV     CX,DI
0578 29D1         567           SUB     CX,DX
057A 8B1E5723     568           MOV     BX,[LSTHDL]
057E B440         569           MOV     AH,40H
0580 CD21         570           INT     21H
0582 FF066523     571   WTITL5: INC     WORD [LSTLIN]
0586 5F           572           POP     DI
0587 F8           573           CLC
0588 C3           574           RET
0589 8926E323     575   READ:   MOV     [STK],SP
058D E81BFE       576           CALL    CALF
PC-72 ASSEMBLER VERSION 1.05        A72.ASM         10

0590 7229         577           JC      READ1
0592 FF4402       578           INC     WORD [SI+2]
0595 8B1C         579           MOV     BX,[SI]
0597 A0D523       580           MOV     AL,[FUNC]
059A 84C0         581           TEST    AL,AL
059C 7920         582           JNS     READ2
059E B80042       583           MOV     AX,4200H
05A1 31C9         584           XOR     CX,CX
05A3 8B16DB23     585           MOV     DX,[PC]
05A7 CD21         586           INT     21H
05A9 7274         587           JC      READ8
05AB B43F         588           MOV     AH,3FH
05AD B90800       589           MOV     CX,8
05B0 8B16D923     590           MOV     DX,[BINBUF]
05B4 CD21         591           INT     21H
05B6 7267         592           JC      READ8
05B8 85C0         593           TEST    AX,AX
05BA C3           594           RET
05BB 29C0         595   READ1:  SUB     AX,AX
05BD C3           596           RET
05BE B43F         597   READ2:  MOV     AH,3FH
05C0 B90001       598           MOV     CX,MAXLEN
05C3 8B16D723     599           MOV     DX,[TXTBUF]
05C7 CD21         600           INT     21H
05C9 7254         601           JC      READ8
05CB 85C0         602           TEST    AX,AX
05CD 74EC         603           JZ      READ1
05CF 89C1         604           MOV     CX,AX
05D1 89C2         605           MOV     DX,AX
05D3 31DB         606           XOR     BX,BX
05D5 8B3ED723     607           MOV     DI,[TXTBUF]
05D9 8A01         608   READ3:  MOV     AL,[BX+DI]
05DB 43           609           INC     BX
05DC B40A         610           MOV     AH,0AH
05DE 3C0D         611           CMP     AL,0DH
05E0 741E         612           JZ      READ6
05E2 B40D         613           MOV     AH,0DH
05E4 3C0A         614           CMP     AL,0AH
05E6 7418         615           JZ      READ6
05E8 E2EF         616           LOOP    READ3
05EA 81FB0001     617           CMP     BX,MAXLEN
05EE 730B         618           JNC     READ5
05F0 8821         619           MOV     [BX+DI],AH
05F2 43           620           INC     BX
05F3 891EF523     621   READ4:  MOV     [TXTLEN],BX
05F7 85DB         622           TEST    BX,BX
05F9 F8           623           CLC
05FA C3           624           RET
05FB B00E         625   READ5:  MOV     AL,0EH
05FD E91301       626           JMP     SCREAM
0600 E305         627   READ6:  JCXZ    READ7
0602 3821         628           CMP     [BX+DI],AH
0604 7501         629           JNZ     READ7
0606 43           630           INC     BX
0607 30C0         631   READ7:  XOR     AL,AL
0609 8801         632           MOV     [BX+DI],AL
060B 89D8         633           MOV     AX,BX
060D 29D0         634           SUB     AX,DX
060F 74E2         635           JZ      READ4
0611 99           636           CWD
0612 53           637           PUSH    BX
0613 B90142       638           MOV     CX,4201H
0616 92           639           XCHG    AX,DX
0617 91           640           XCHG    AX,CX
PC-72 ASSEMBLER VERSION 1.05        A72.ASM         11

0618 8B1C         641           MOV     BX,[SI]
061A CD21         642           INT     21H
061C 5B           643           POP     BX
061D 73D4         644           JNC     READ4
061F BA0400       645   READ8:  MOV     DX,4
0622 01F2         646           ADD     DX,SI
0624 B00F         647           MOV     AL,0FH
0626 E9EA00       648           JMP     SCREAM
0629 8926E323     649   WRITE:  MOV     [STK],SP
062D A0D523       650           MOV     AL,[FUNC]
0630 84C0         651           TEST    AL,AL
0632 785C         652           JS      WRITE5
0634 A810         653           TEST    AL,10H
0636 7453         654           JZ      WRITE0
0638 8B0EF323     655           MOV     CX,[BINLEN]
063C E352         656           JCXZ    WRITE5
063E 8B16DD23     657           MOV     DX,[USIZE]
0642 85D2         658           TEST    DX,DX
0644 742B         659           JZ      WRITE3
0646 8B3E5D23     660           MOV     DI,[TEMP]
064A B90001       661           MOV     CX,100H
064D 30C0         662           XOR     AL,AL
064F FC           663           CLD
0650 F3AA         664           REPZ    STOSB
0652 52           665   WRITE1: PUSH    DX
0653 B90001       666           MOV     CX,100H
0656 39D1         667           CMP     CX,DX
0658 7202         668           JC      WRITE2
065A 89D1         669           MOV     CX,DX
065C 51           670   WRITE2: PUSH    CX
065D B440         671           MOV     AH,40H
065F 8B165D23     672           MOV     DX,[TEMP]
0663 8B1E5523     673           MOV     BX,[OUTHDL]
0667 CD21         674           INT     21H
0669 7218         675           JC      WRITE4
066B 59           676           POP     CX
066C 5A           677           POP     DX
066D 29CA         678           SUB     DX,CX
066F 77E1         679           JA      WRITE1
0671 B440         680   WRITE3: MOV     AH,40H
0673 8B0EF323     681           MOV     CX,[BINLEN]
0677 8B16D923     682           MOV     DX,[BINBUF]
067B 8B1E5523     683           MOV     BX,[OUTHDL]
067F CD21         684           INT     21H
0681 7308         685           JNC     WRITE0
0683 BA9522       686   WRITE4: MOV     DX,OUTFN
0686 B00F         687           MOV     AL,0FH
0688 E98800       688           JMP     SCREAM
068B 31C0         689   WRITE0: XOR     AX,AX
068D A3DD23       690           MOV     [USIZE],AX
0690 F8           691   WRITE5: CLC
0691 C3           692           RET
0692 E816FD       693   CLOSE:  CALL    CALF
0695 7206         694           JC      NOIN
0697 B43E         695           MOV     AH,3EH
0699 8B1C         696           MOV     BX,[SI]
069B CD21         697           INT     21H
069D F706D5234040 698   NOIN:   TEST    WORD [FUNC],4040H
06A3 7410         699           JZ      NOLST
06A5 F706D5238080 700           TEST    WORD [FUNC],8080H
06AB 7508         701           JNZ     NOLST
06AD B43E         702           MOV     AH,3EH
06AF 8B1E5723     703           MOV     BX,[LSTHDL]
06B3 CD21         704           INT     21H
PC-72 ASSEMBLER VERSION 1.05        A72.ASM         12

06B5 F706D5231010 705   NOLST:  TEST    WORD [FUNC],1010H
06BB 7408         706           JZ      NOOUT
06BD B43E         707           MOV     AH,3EH
06BF 8B1E5523     708           MOV     BX,[OUTHDL]
06C3 CD21         709           INT     21H
06C5 C3           710   NOOUT:  RET
06C6 BE5522       711   OPEN:   MOV     SI,INFN
06C9 E898FC       712           CALL    RFN2
06CC E8F4FC       713           CALL    INCF
06CF B00B         714           MOV     AL,0BH
06D1 7240         715           JC      SCREAM
06D3 F706D5231010 716           TEST    WORD [FUNC],1010H
06D9 740E         717           JZ      OPEN2
06DB B43C         718           MOV     AH,3CH
06DD 31C9         719           XOR     CX,CX
06DF BA9522       720           MOV     DX,OUTFN
06E2 CD21         721           INT     21H
06E4 722B         722           JC      OPEN4
06E6 A35523       723           MOV     [OUTHDL],AX
06E9 F706D5238080 724   OPEN2:  TEST    WORD [FUNC],8080H
06EF 7518         725           JNZ     OPEN3
06F1 F706D5234040 726           TEST    WORD [FUNC],4040H
06F7 740E         727           JZ      OPEN1
06F9 B43C         728           MOV     AH,3CH
06FB 31C9         729           XOR     CX,CX
06FD BAD522       730           MOV     DX,LSTFN
0700 CD21         731           INT     21H
0702 720A         732           JC      OPEN5
0704 A35723       733           MOV     [LSTHDL],AX
0707 F8           734   OPEN1:  CLC
0708 C3           735           RET
0709 A35723       736   OPEN3:  MOV     [LSTHDL],AX
070C F8           737           CLC
070D C3           738           RET
070E E8A4FF       739   OPEN5:  CALL    NOLST
0711 B00B         740   OPEN4:  MOV     AL,0BH
0713 FC           741   SCREAM: CLD
0714 98           742           CBW
0715 8B3E5D23     743           MOV     DI,[TEMP]
0719 89C1         744           MOV     CX,AX
071B 80F90F       745           CMP     CL,0FH
071E 742B         746           JZ      SCRUM
0720 E888FC       747           CALL    CALF
0723 7218         748           JC      SCROOM
0725 AD           749           LODSW
0726 AD           750           LODSW
0727 50           751           PUSH    AX
0728 E807FC       752           CALL    WRM
072B B028         753           MOV     AL,28H
072D AA           754           STOSB
072E 58           755           POP     AX
072F 51           756           PUSH    CX
0730 52           757           PUSH    DX
0731 B90A00       758           MOV     CX,10
0734 E8E001       759           CALL    WN
0737 5A           760           POP     DX
0738 59           761           POP     CX
0739 B82920       762           MOV     AX,2029H
073C AB           763           STOSW
073D 84C9         764   SCROOM: TEST    CL,CL
073F 7425         765           JZ      SCRAM
0741 80F905       766           CMP     CL,5
0744 740C         767           JZ      SCROYM
0746 80F90B       768           CMP     CL,0BH
PC-72 ASSEMBLER VERSION 1.05        A72.ASM         13

0749 7511         769           JNZ     SCROME
074B 89D6         770   SCRUM:  MOV     SI,DX
074D E8E2FB       771           CALL    WRM
0750 EB0A         772           JMP     SHORT SCROME
0752 51           773   SCROYM: PUSH    CX
0753 89D0         774           MOV     AX,DX
0755 B90A00       775           MOV     CX,10
0758 E8BC01       776           CALL    WN
075B 59           777           POP     CX
075C BE081D       778   SCROME: MOV     SI,EM0
075F AC           779   SCREM:  LODSB
0760 84C0         780           TEST    AL,AL
0762 75FB         781           JNZ     SCREM
0764 E2F9         782           LOOP    SCREM
0766 E8C9FB       783   SCRAM:  CALL    WRM
0769 8B165D23     784   PRUNT:  MOV     DX,[TEMP]
076D B80D0A       785           MOV     AX,0A0DH
0770 AB           786           STOSW
0771 89F9         787           MOV     CX,DI
0773 29D1         788           SUB     CX,DX
0775 51           789           PUSH    CX
0776 52           790           PUSH    DX
0777 B440         791           MOV     AH,40H
0779 BB0100       792           MOV     BX,1
077C CD21         793           INT     21H
077E 5A           794           POP     DX
077F 59           795           POP     CX
0780 F9           796           STC
0781 C3           797           RET
0782 B8551F       798   INIT:   MOV     AX,BUF1
0785 A3D723       799           MOV     [TXTBUF],AX
0788 B85520       800           MOV     AX,BUF2
078B A3D923       801           MOV     [BINBUF],AX
078E B85521       802           MOV     AX,BUF3
0791 A35D23       803           MOV     [TEMP],AX
0794 B85527       804           MOV     AX,SYMBS
0797 A3E123       805           MOV     [SYM],AX
079A 31FF         806           XOR     DI,DI
079C 97           807           XCHG    DI,AX
079D AB           808           STOSW
079E A35923       809           MOV     [INCLEV],AX
07A1 A3D523       810           MOV     [FUNC],AX
07A4 A35522       811           MOV     [INFN],AX
07A7 A39522       812           MOV     [OUTFN],AX
07AA A3D522       813           MOV     [LSTFN],AX
07AD A31523       814           MOV     [DEFFN],AX
07B0 40           815           INC     AX
07B1 A35F23       816           MOV     [PASS],AX
07B4 C3           817           RET
07B5 30C0         818   P2:     XOR     AL,AL
07B7 8800         819           MOV     [BX+SI],AL
07B9 E807FC       820           CALL    INCF
07BC B00B         821   P2F:    MOV     AL,0BH
07BE C3           822           RET
07BF B8003D       823   P3:     MOV     AX,3D00H
07C2 8800         824           MOV     [BX+SI],AL
07C4 89F2         825           MOV     DX,SI
07C6 CD21         826           INT     21H
07C8 72F2         827           JC      P2F
07CA 89C3         828           MOV     BX,AX
07CC B43F         829   P3L:    MOV     AH,3FH
07CE 8B165D23     830           MOV     DX,[TEMP]
07D2 B90001       831           MOV     CX,100H
07D5 CD21         832           INT     21H
PC-72 ASSEMBLER VERSION 1.05        A72.ASM         14

07D7 89F2         833           MOV     DX,SI
07D9 72E1         834           JC      P2F
07DB 0106DB23     835           ADD     [PC],AX
07DF 89C1         836           MOV     CX,AX
07E1 E31B         837           JCXZ    P3E
07E3 F606D52310   838           TEST    BYTE [FUNC],10H
07E8 7410         839           JZ      P3S
07EA 50           840           PUSH    AX
07EB 53           841           PUSH    BX
07EC B440         842           MOV     AH,40H
07EE 8B165D23     843           MOV     DX,[TEMP]
07F2 8B1E5523     844           MOV     BX,[OUTHDL]
07F6 CD21         845           INT     21H
07F8 5B           846           POP     BX
07F9 58           847           POP     AX
07FA 85C0         848   P3S:    TEST    AX,AX
07FC 75CE         849           JNZ     P3L
07FE B43E         850   P3E:    MOV     AH,3EH
0800 CD21         851           INT     21H
0802 C3           852           RET
0803 E863FF       853   P4:     CALL    PRUNT
0806 F8           854           CLC
0807 C3           855           RET
0808 FC           856   P5:     CLD
0809 BF5525       857           MOV     DI,BUF7
080C 89D9         858           MOV     CX,BX
080E F3A4         859           REPZ    MOVSB
0810 30C0         860           XOR     AL,AL
0812 AA           861           STOSB
0813 F8           862           CLC
0814 C3           863           RET
0815 85D2         864   P6:     TEST    DX,DX
0817 7508         865           JNZ     P6S
0819 A1DF1C       866           MOV     AX,[PAGLEN]
081C A36523       867           MOV     [LSTLIN],AX
081F F8           868           CLC
0820 C3           869           RET
0821 8916DF1C     870   P6S:    MOV     [PAGLEN],DX
0825 F8           871           CLC
0826 C3           872           RET
0827              873           INCLUDE GENERIC.ASM
PC-72 ASSEMBLER VERSION 1.05        GENERIC.ASM     15

0827 31DB         1     CC:     XOR     BX,BX
0829 8A00         2     CCM:    MOV     AL,[BX+SI]
082B 3C00         3             CMP     AL,0
082D 7442         4             JZ      CCT
082F 3C0D         5             CMP     AL,0DH
0831 743E         6             JZ      CCT
0833 3C21         7             CMP     AL,21H
0835 722F         8             JC      CCK
0837 3C22         9             CMP     AL,22H
0839 743B         10            JZ      CCQ
083B 3C27         11            CMP     AL,27H
083D 7437         12            JZ      CCQ
083F 3C30         13            CMP     AL,30H
0841 722A         14            JC      CCS
0843 3C3A         15            CMP     AL,3AH
0845 721C         16            JC      CCL
0847 3C3B         17            CMP     AL,3BH
0849 7426         18            JZ      CCT
084B 3C41         19            CMP     AL,41H
084D 721E         20            JC      CCS
084F 3C5B         21            CMP     AL,5BH
0851 7210         22            JC      CCL
0853 3C5F         23            CMP     AL,5FH
0855 740C         24            JZ      CCL
0857 3C61         25            CMP     AL,61H
0859 7212         26            JC      CCS
085B 3C7B         27            CMP     AL,7BH
085D 730E         28            JNC     CCS
085F 24DF         29            AND     AL,0DFH
0861 8800         30            MOV     [BX+SI],AL
0863 43           31    CCL:    INC     BX
0864 EBC3         32            JMP     SHORT CCM
0866 85DB         33    CCK:    TEST    BX,BX
0868 7507         34            JNZ     CCT
086A 46           35            INC     SI
086B EBBC         36            JMP     SHORT CCM
086D 85DB         37    CCS:    TEST    BX,BX
086F 740E         38            JZ      CCE
0871 8A04         39    CCT:    MOV     AL,[SI]
0873 85DB         40            TEST    BX,BX
0875 C3           41            RET
0876 85DB         42    CCQ:    TEST    BX,BX
0878 75F7         43            JNZ     CCT
087A 43           44    CCW:    INC     BX
087B 3A00         45            CMP     AL,[BX+SI]
087D 75FB         46            JNZ     CCW
087F 43           47    CCE:    INC     BX
0880 C3           48            RET
0881 3D8000       49    AA:     CMP     AX,80H
0884 7204         50            JC      AA1
0886 3D80FF       51            CMP     AX,0FF80H
0889 C3           52            RET
088A F5           53    AA1:    CMC
088B C3           54            RET
088C 8B15         55    SL:     MOV     DX,[DI]
088E F9           56            STC
088F 19C9         57            SBB     CX,CX
0891 83C703       58    SL1:    ADD     DI,3
0894 01CF         59            ADD     DI,CX
0896 4A           60            DEC     DX
0897 7820         61            JS      SL4
0899 30ED         62            XOR     CH,CH
089B 8A0D         63            MOV     CL,[DI]
089D 38D9         64            CMP     CL,BL
PC-72 ASSEMBLER VERSION 1.05        GENERIC.ASM     16

089F 75F0         65            JNZ     SL1
08A1 8A01         66    SL2:    MOV     AL,[BX+DI]
08A3 247F         67            AND     AL,7FH
08A5 4B           68            DEC     BX
08A6 7808         69            JS      SL3
08A8 3200         70            XOR     AL,[BX+SI]
08AA 74F5         71            JZ      SL2
08AC 89CB         72            MOV     BX,CX
08AE 75E1         73            JNZ     SL1
08B0 89CB         74    SL3:    MOV     BX,CX
08B2 8B4101       75            MOV     AX,[BX+DI+1]
08B5 01DE         76            ADD     SI,BX
08B7 31DB         77            XOR     BX,BX
08B9 C3           78    SL4:    RET
08BA 50           79    HALX:   PUSH    AX
08BB D0E8         80            SHR     AL,1
08BD D0E8         81            SHR     AL,1
08BF D0E8         82            SHR     AL,1
08C1 D0E8         83            SHR     AL,1
08C3 E80100       84            CALL    HALL
08C6 58           85            POP     AX
08C7 240F         86    HALL:   AND     AL,0FH
08C9 0C30         87            OR      AL,30H
08CB 3C3A         88            CMP     AL,3AH
08CD 7202         89            JC      $+4
08CF 0407         90            ADD     AL,7
08D1 AA           91            STOSB
08D2 C3           92            RET
08D3 FC           93    RN:     CLD
08D4 98           94            CBW
08D5 99           95            CWD
08D6 80F905       96            CMP     CL,5
08D9 7320         97            JNC     RN4
08DB 80F901       98            CMP     CL,1
08DE 7235         99            JC      RN0
08E0 AC           100   RN1:    LODSB
08E1 2C30         101           SUB     AL,30H
08E3 7230         102           JC      RN0
08E5 3C0A         103           CMP     AL,0AH
08E7 7202         104           JC      RN2
08E9 2C07         105           SUB     AL,7
08EB 3C10         106   RN2:    CMP     AL,10H
08ED 7326         107           JNC     RN0
08EF D3E2         108           SHL     DX,CL
08F1 08C2         109           OR      DL,AL
08F3 4B           110           DEC     BX
08F4 75EA         111           JNZ     RN1
08F6 01DE         112   RN3:    ADD     SI,BX
08F8 92           113           XCHG    AX,DX
08F9 F8           114           CLC
08FA C3           115           RET
08FB AC           116   RN4:    LODSB
08FC 2C30         117           SUB     AL,30H
08FE 7215         118           JC      RN0
0900 3C0A         119           CMP     AL,0AH
0902 7311         120           JNC     RN0
0904 D1E2         121           SHL     DX,1
0906 89D1         122           MOV     CX,DX
0908 D1E2         123           SHL     DX,1
090A D1E2         124           SHL     DX,1
090C 01CA         125           ADD     DX,CX
090E 01C2         126           ADD     DX,AX
0910 4B           127           DEC     BX
0911 75E8         128           JNZ     RN4
PC-72 ASSEMBLER VERSION 1.05        GENERIC.ASM     17

0913 EBE1         129           JMP     SHORT RN3
0915 F9           130   RN0:    STC
0916 C3           131           RET
0917 FC           132   WN:     CLD
0918 39C8         133           CMP     AX,CX
091A 7309         134           JNC     WN1
091C 3D0A00       135           CMP     AX,10
091F 7304         136           JNC     WN1
0921 0C30         137           OR      AL,30H
0923 AA           138           STOSB
0924 C3           139           RET
0925 89FE         140   WN1:    MOV     SI,DI
0927 31D2         141   WN2:    XOR     DX,DX
0929 F7F1         142           DIV     CX
092B 92           143           XCHG    AX,DX
092C 3C0A         144           CMP     AL,10
092E 1C69         145           SBB     AL,105
0930 2F           146           DAS
0931 AA           147           STOSB
0932 92           148           XCHG    AX,DX
0933 85C0         149           TEST    AX,AX
0935 75F0         150           JNZ     WN2
0937 80FA3A       151           CMP     DL,58
093A 7203         152           JC      WN5
093C B030         153           MOV     AL,48
093E AA           154           STOSB
093F 89F9         155   WN5:    MOV     CX,DI
0941 29F1         156           SUB     CX,SI
0943 D1E9         157           SHR     CX,1
0945 740C         158           JZ      WN0
0947 29CF         159           SUB     DI,CX
0949 01CE         160           ADD     SI,CX
094B 4E           161   WN4:    DEC     SI
094C 8A05         162           MOV     AL,[DI]
094E 8604         163           XCHG    [SI],AL
0950 AA           164           STOSB
0951 E2F8         165           LOOP    WN4
0953 C3           166   WN0:    RET
0954 E8D0FE       167   LBL:    CALL    CC
0957 A0D523       168           MOV     AL,[FUNC]
095A 2403         169           AND     AL,3
095C 7423         170           JZ      LBL2
095E 8B3EE123     171           MOV     DI,[SYM]
0962 E827FF       172           CALL    SL
0965 7927         173           JNS     LBL3
0967 FC           174           CLD
0968 88D8         175           MOV     AL,BL
096A AA           176           STOSB
096B 89D9         177           MOV     CX,BX
096D F3A4         178           REPZ    MOVSB
096F 8B1EE123     179           MOV     BX,[SYM]
0973 FF07         180           INC     WORD [BX]
0975 89FD         181   LBL1:   MOV     BP,DI
0977 A1DB23       182           MOV     AX,[PC]
097A 0306DF23     183           ADD     AX,[VORG]
097E AB           184           STOSW
097F 31DB         185           XOR     BX,BX
0981 01DE         186   LBL2:   ADD     SI,BX
0983 E8A1FE       187           CALL    CC
0986 7415         188           JZ      ERR3
0988 3C3A         189           CMP     AL,3AH
098A 7501         190           JNZ     $+3
098C 46           191           INC     SI
098D C3           192           RET
PC-72 ASSEMBLER VERSION 1.05        GENERIC.ASM     18

098E 01CF         193   LBL3:   ADD     DI,CX
0990 47           194           INC     DI
0991 A0D523       195           MOV     AL,[FUNC]
0994 2402         196           AND     AL,2
0996 75DD         197           JNZ     LBL1
0998 B00A         198           MOV     AL,0AH
099A E98700       199           JMP     FAIL
099D B003         200   ERR3:   MOV     AL,3
099F E98200       201           JMP     FAIL
09A2 8B3ED923     202   SETDFB: MOV     DI,[BINBUF]
09A6 E87EFE       203   SETD1:  CALL    CC
09A9 7473         204           JZ      ERR8
09AB 3C3F         205           CMP     AL,3FH
09AD 7438         206           JZ      SETD5
09AF 84C9         207           TEST    CL,CL
09B1 7408         208           JZ      SETD2
09B3 31C0         209           XOR     AX,AX
09B5 86E5         210           XCHG    CH,AH
09B7 F3AA         211           REPZ    STOSB
09B9 88E5         212           MOV     CH,AH
09BB 3C22         213   SETD2:  CMP     AL,22H
09BD 742D         214           JZ      SETD6
09BF 3C27         215           CMP     AL,27H
09C1 7429         216           JZ      SETD6
09C3 51           217   SETD3:  PUSH    CX
09C4 57           218           PUSH    DI
09C5 E8D509       219           CALL    RI
09C8 5F           220           POP     DI
09C9 59           221           POP     CX
09CA A1F123       222           MOV     AX,[IMM]
09CD AB           223           STOSW
09CE 80FD02       224           CMP     CH,2
09D1 7429         225           JZ      SETD7
09D3 7303         226           JNC     SETD4
09D5 4F           227           DEC     DI
09D6 EB24         228           JMP     SHORT SETD7
09D8 D1E0         229   SETD4:  SHL     AX,1
09DA 18C0         230           SBB     AL,AL
09DC 51           231           PUSH    CX
09DD 86CD         232           XCHG    CH,CL
09DF 80E902       233           SUB     CL,2
09E2 F3AA         234           REPZ    STOSB
09E4 59           235           POP     CX
09E5 EB15         236           JMP     SHORT SETD7
09E7 00E9         237   SETD5:  ADD     CL,CH
09E9 46           238           INC     SI
09EA EB10         239           JMP     SHORT SETD7
09EC 80FB04       240   SETD6:  CMP     BL,4
09EF 72D2         241           JC      SETD3
09F1 51           242           PUSH    CX
09F2 89D9         243           MOV     CX,BX
09F4 83E902       244           SUB     CX,2
09F7 46           245           INC     SI
09F8 F3A4         246           REPZ    MOVSB
09FA 59           247           POP     CX
09FB 46           248           INC     SI
09FC E828FE       249   SETD7:  CALL    CC
09FF 7407         250           JZ      SETD8
0A01 3C2C         251           CMP     AL,2CH
0A03 751D         252           JNZ     ERR1
0A05 46           253           INC     SI
0A06 EB9E         254           JMP     SHORT SETD1
0A08 30ED         255   SETD8:  XOR     CH,CH
0A0A 010EDD23     256           ADD     [USIZE],CX
PC-72 ASSEMBLER VERSION 1.05        GENERIC.ASM     19

0A0E 010EDB23     257           ADD     [PC],CX
0A12 89F9         258           MOV     CX,DI
0A14 2B0ED923     259           SUB     CX,[BINBUF]
0A18 010EF323     260           ADD     [BINLEN],CX
0A1C F8           261           CLC
0A1D C3           262           RET
0A1E B008         263   ERR8:   MOV     AL,8
0A20 EB02         264           JMP     SHORT FAIL
0A22 B001         265   ERR1:   MOV     AL,1
0A24 8B26E323     266   FAIL:   MOV     SP,[STK]
0A28 3C05         267           CMP     AL,5
0A2A 750E         268           JNZ     FAIL0
0A2C 8B16F123     269           MOV     DX,[IMM]
0A30 85D2         270           TEST    DX,DX
0A32 7903         271           JNS     FAIL1
0A34 F7DA         272           NEG     DX
0A36 4A           273           DEC     DX
0A37 83EA7F       274   FAIL1:  SUB     DX,7FH
0A3A F9           275   FAIL0:  STC
0A3B C3           276           RET
0A3C E8E8FD       277   SETINC: CALL    CC
0A3F 74DD         278           JZ      ERR8
0A41 3C22         279           CMP     AL,22H
0A43 7404         280           JZ      SETIN1
0A45 3C27         281           CMP     AL,27H
0A47 7507         282           JNZ     SETIN2
0A49 46           283   SETIN1: INC     SI
0A4A 83EB02       284           SUB     BX,2
0A4D 76CF         285           JBE     ERR8
0A4F C3           286           RET
0A50 31DB         287   SETIN2: XOR     BX,BX
0A52 43           288   SETIN3: INC     BX
0A53 8A00         289           MOV     AL,[BX+SI]
0A55 3C3B         290           CMP     AL,3BH
0A57 7404         291           JZ      SETIN4
0A59 3C21         292           CMP     AL,21H
0A5B 73F5         293           JNC     SETIN3
0A5D C3           294   SETIN4: RET
0A5E 8B5401       295   GVQ:    MOV     DX,[SI+1]
0A61 01DE         296           ADD     SI,BX
0A63 83FB05       297           CMP     BX,5
0A66 7313         298           JNC     GV7
0A68 83FB04       299           CMP     BX,4
0A6B 7376         300           JNC     GVV
0A6D 83FB03       301           CMP     BX,3
0A70 720E         302           JC      GV8
0A72 30F6         303           XOR     DH,DH
0A74 EB6D         304           JMP     SHORT GVV
0A76 B004         305   GV4:    MOV     AL,4
0A78 E9A9FF       306           JMP     FAIL
0A7B B007         307   GV7:    MOV     AL,7
0A7D E9A4FF       308           JMP     FAIL
0A80 B008         309   GV8:    MOV     AL,8
0A82 E99FFF       310           JMP     FAIL
0A85 F6C140       311   GV:     TEST    CL,40H
0A88 753B         312           JNZ     GVA
0A8A 38D0         313           CMP     AL,DL
0A8C 7428         314           JZ      GVC
0A8E 3C22         315           CMP     AL,22H
0A90 74CC         316           JZ      GVQ
0A92 3C27         317           CMP     AL,27H
0A94 74C8         318           JZ      GVQ
0A96 E8AE01       319           CALL    RNM
0A99 73EA         320           JNC     GV
PC-72 ASSEMBLER VERSION 1.05        GENERIC.ASM     20

0A9B E87601       321           CALL    RNC
0A9E 7343         322           JNC     GVV
0AA0 3C40         323           CMP     AL,40H
0AA2 7221         324           JC      GVA
0AA4 51           325           PUSH    CX
0AA5 8B3EE123     326           MOV     DI,[SYM]
0AA9 E8E0FD       327           CALL    SL
0AAC 59           328           POP     CX
0AAD 7918         329           JNS     GVL
0AAF A0D523       330           MOV     AL,[FUNC]
0AB2 2402         331           AND     AL,2
0AB4 75C0         332           JNZ     GV4
0AB6 01DE         333   GVC:    ADD     SI,BX
0AB8 80C901       334           OR      CL,1
0ABB 8B16DB23     335           MOV     DX,[PC]
0ABF 0316DF23     336           ADD     DX,[VORG]
0AC3 EB1E         337           JMP     SHORT GVV
0AC5 F9           338   GVA:    STC
0AC6 C3           339           RET
0AC7 92           340   GVL:    XCHG    DX,AX
0AC8 84F6         341           TEST    DH,DH
0ACA 7514         342           JNZ     GVL2
0ACC A0D523       343           MOV     AL,[FUNC]
0ACF 2403         344           AND     AL,3
0AD1 740D         345           JZ      GVL2
0AD3 B480         346           MOV     AH,80H
0AD5 47           347           INC     DI
0AD6 2401         348           AND     AL,1
0AD8 7402         349           JZ      GVL1
0ADA 0825         350           OR      [DI],AH
0ADC 8425         351   GVL1:   TEST    [DI],AH
0ADE 7503         352           JNZ     GVV
0AE0 80C902       353   GVL2:   OR      CL,2
0AE3 80C940       354   GVV:    OR      CL,40H
0AE6 84C9         355           TEST    CL,CL
0AE8 7905         356           JNS     GVNS
0AEA 80E17F       357           AND     CL,7FH
0AED F7DA         358           NEG     DX
0AEF F6C110       359   GVNS:   TEST    CL,10H
0AF2 7518         360           JNZ     GVWO
0AF4 F6C108       361           TEST    CL,8
0AF7 7507         362           JNZ     GVHB
0AF9 F6C104       363           TEST    CL,4
0AFC 7509         364           JNZ     GVLB
0AFE EB0C         365           JMP     SHORT GVWO
0B00 F6C104       366   GVHB:   TEST    CL,4
0B03 7507         367           JNZ     GVWO
0B05 86F2         368           XCHG    DL,DH
0B07 30F6         369   GVLB:   XOR     DH,DH
0B09 80E1FC       370           AND     CL,0FCH
0B0C 89D0         371   GVWO:   MOV     AX,DX
0B0E F8           372           CLC
0B0F C3           373           RET
0B10 30C9         374   RE:     XOR     CL,CL
0B12 31C0         375           XOR     AX,AX
0B14 A3F123       376           MOV     [IMM],AX
0B17 E80DFD       377   REA:    CALL    CC
0B1A 741E         378           JZ      RED
0B1C 3C2B         379           CMP     AL,2BH
0B1E 7414         380           JZ      REC
0B20 3C2D         381           CMP     AL,2DH
0B22 740D         382           JZ      REB
0B24 52           383           PUSH    DX
0B25 E85DFF       384           CALL    GV
PC-72 ASSEMBLER VERSION 1.05        GENERIC.ASM     21

0B28 5A           385           POP     DX
0B29 720F         386           JC      RED
0B2B 0106F123     387           ADD     [IMM],AX
0B2F EBE6         388           JMP     SHORT REA
0B31 80F180       389   REB:    XOR     CL,80H
0B34 80E1BF       390   REC:    AND     CL,0BFH
0B37 46           391           INC     SI
0B38 EBDD         392           JMP     SHORT REA
0B3A F6C140       393   RED:    TEST    CL,40H
0B3D 7404         394           JZ      RE8
0B3F A1F123       395           MOV     AX,[IMM]
0B42 C3           396           RET
0B43 B008         397   RE8:    MOV     AL,8
0B45 E9DCFE       398           JMP     FAIL
PC-72 ASSEMBLER VERSION 1.05        A72.ASM         22

0B48              874           INCLUDE 8086.ASM
PC-72 ASSEMBLER VERSION 1.05        8086.ASM        23

0B48 8926E323     1     ASM:    MOV     [STK],SP
0B4C 31C0         2             XOR     AX,AX
0B4E A3F323       3             MOV     [BINLEN],AX
0B51 8B36D723     4             MOV     SI,[TXTBUF]
0B55 A0D523       5             MOV     AL,[FUNC]
0B58 84C0         6             TEST    AL,AL
0B5A 7927         7             JNS     ASM2
0B5C 31C0         8             XOR     AX,AX
0B5E A3F523       9             MOV     [TXTLEN],AX
0B61 8B36D923     10            MOV     SI,[BINBUF]
0B65 8B3ED723     11            MOV     DI,[TXTBUF]
0B69 E83608       12            CALL    DISASM
0B6C B80D0A       13            MOV     AX,0A0DH
0B6F AB           14            STOSW
0B70 89F8         15            MOV     AX,DI
0B72 2B06D723     16            SUB     AX,[TXTBUF]
0B76 A3F523       17            MOV     [TXTLEN],AX
0B79 890EF323     18            MOV     [BINLEN],CX
0B7D E98900       19            JMP     ASM0
0B80 E8D1FD       20    ASM1:   CALL    LBL
0B83 8B26E323     21    ASM2:   MOV     SP,[STK]
0B87 31C0         22            XOR     AX,AX
0B89 BFE523       23            MOV     DI,WADJ
0B8C B90700       24            MOV     CX,7
0B8F FC           25            CLD
0B90 F3AB         26            REPZ    STOSW
0B92 E892FC       27            CALL    CC
0B95 7472         28            JZ      ASM0
0B97 BF4E19       29            MOV     DI,I8086
0B9A E8EFFC       30            CALL    SL
0B9D BF7A16       31            MOV     DI,IHDL
0BA0 791F         32            JNS     ASM3
0BA2 BF3E1C       33            MOV     DI,D8086
0BA5 E8E4FC       34            CALL    SL
0BA8 BF9A16       35            MOV     DI,AHDL
0BAB 7919         36            JNS     ASM5
0BAD E8C800       37            CALL    SCREG
0BB0 75CE         38            JNZ     ASM1
0BB2 E8A002       39            CALL    GSPR
0BB5 7305         40            JNC     G0AH
0BB7 B00C         41            MOV     AL,0CH
0BB9 E968FE       42            JMP     FAIL
0BBC E81800       43    G0AH:   CALL    ASM6
0BBF EBC2         44            JMP     SHORT ASM2
0BC1 800EEB2320   45    ASM3:   OR      BYTE [FLAGS],20H
0BC6 8606ED23     46    ASM5:   XCHG    AL,[OPCODE]
0BCA 86E0         47            XCHG    AL,AH
0BCC D1E0         48            SHL     AX,1
0BCE 01C7         49            ADD     DI,AX
0BD0 FF15         50            CALL    [DI]
0BD2 E852FC       51            CALL    CC
0BD5 7538         52            JNZ     ASM9
0BD7 A0EB23       53    ASM6:   MOV     AL,[FLAGS]
0BDA A8FF         54            TEST    AL,0FFH
0BDC 742B         55            JZ      ASM0
0BDE 8B3ED923     56            MOV     DI,[BINBUF]
0BE2 033EF323     57            ADD     DI,[BINLEN]
0BE6 56           58            PUSH    SI
0BE7 57           59            PUSH    DI
0BE8 BEEC23       60            MOV     SI,SEGPREF
0BEB 8A16EB23     61            MOV     DL,[FLAGS]
0BEF D0E2         62            SHL     DL,1
0BF1 FC           63            CLD
0BF2 AC           64    ASM7:   LODSB
PC-72 ASSEMBLER VERSION 1.05        8086.ASM        24

0BF3 D0E2         65            SHL     DL,1
0BF5 7301         66            JNC     ASM8
0BF7 AA           67            STOSB
0BF8 75F8         68    ASM8:   JNZ     ASM7
0BFA 59           69            POP     CX
0BFB 5E           70            POP     SI
0BFC 87F9         71            XCHG    CX,DI
0BFE 29F9         72            SUB     CX,DI
0C00 30C0         73            XOR     AL,AL
0C02 A2EB23       74            MOV     [FLAGS],AL
0C05 010EF323     75            ADD     [BINLEN],CX
0C09 010EDB23     76    ASM0:   ADD     [PC],CX
0C0D F8           77            CLC
0C0E C3           78            RET
0C0F B009         79    ASM9:   MOV     AL,9
0C11 E910FE       80            JMP     FAIL
0C14 3C30         81    RNC:    CMP     AL,30H
0C16 722E         82            JC      RNC0
0C18 3C3A         83            CMP     AL,3AH
0C1A 7202         84            JC      RNC1
0C1C F9           85            STC
0C1D C3           86            RET
0C1E 51           87    RNC1:   PUSH    CX
0C1F B105         88            MOV     CL,5
0C21 8D10         89            LEA     DX,[BX+SI]
0C23 52           90            PUSH    DX
0C24 50           91            PUSH    AX
0C25 4B           92            DEC     BX
0C26 8A00         93            MOV     AL,[BX+SI]
0C28 3C42         94            CMP     AL,42H
0C2A 740F         95            JZ      RNC2
0C2C 3C48         96            CMP     AL,48H
0C2E 740E         97            JZ      RNC16
0C30 3C4F         98            CMP     AL,4FH
0C32 7409         99            JZ      RNC8
0C34 3C51         100           CMP     AL,51H
0C36 7404         101           JZ      RNC4
0C38 43           102           INC     BX
0C39 7504         103           JNZ     RNC10
0C3B 49           104   RNC2:   DEC     CX
0C3C 49           105   RNC4:   DEC     CX
0C3D 49           106   RNC8:   DEC     CX
0C3E 49           107   RNC16:  DEC     CX
0C3F E891FC       108   RNC10:  CALL    RN
0C42 5A           109           POP     DX
0C43 92           110           XCHG    AX,DX
0C44 5E           111           POP     SI
0C45 59           112           POP     CX
0C46 C3           113   RNC0:   RET
0C47 50           114   RNM:    PUSH    AX
0C48 E84A00       115           CALL    SW
0C4B 7513         116           JNZ     RNM0
0C4D 01DE         117           ADD     SI,BX
0C4F 3C11         118           CMP     AL,11H
0C51 7418         119           JZ      RNM3
0C53 3C12         120           CMP     AL,12H
0C55 740C         121           JZ      RNM1
0C57 3C13         122           CMP     AL,13H
0C59 740D         123           JZ      RNM2
0C5B B00C         124   D5:     MOV     AL,0CH
0C5D E9C4FD       125           JMP     FAIL
0C60 58           126   RNM0:   POP     AX
0C61 F9           127           STC
0C62 C3           128           RET
PC-72 ASSEMBLER VERSION 1.05        8086.ASM        25

0C63 80C904       129   RNM1:   OR      CL,4
0C66 7503         130           JNZ     RNM3
0C68 80C908       131   RNM2:   OR      CL,8
0C6B 58           132   RNM3:   POP     AX
0C6C E8B8FB       133           CALL    CC
0C6F 7402         134           JZ      RNM8
0C71 F8           135           CLC
0C72 C3           136           RET
0C73 B008         137   RNM8:   MOV     AL,8
0C75 E9ACFD       138           JMP     FAIL
0C78 51           139   SCREG:  PUSH    CX
0C79 83FB02       140           CMP     BX,2
0C7C 7515         141           JNZ     SCREG0
0C7E 8B04         142           MOV     AX,[SI]
0C80 BF2619       143           MOV     DI,REGS
0C83 B91400       144           MOV     CX,14H
0C86 FC           145           CLD
0C87 F2AF         146           REPNZ   SCASW
0C89 7508         147           JNZ     SCREG0
0C8B 01DE         148           ADD     SI,BX
0C8D B013         149           MOV     AL,13H
0C8F 28C8         150           SUB     AL,CL
0C91 31DB         151           XOR     BX,BX
0C93 59           152   SCREG0: POP     CX
0C94 C3           153           RET
0C95 51           154   SW:     PUSH    CX
0C96 52           155           PUSH    DX
0C97 53           156           PUSH    BX
0C98 56           157           PUSH    SI
0C99 BF3E1C       158           MOV     DI,D8086
0C9C E8EDFB       159           CALL    SL
0C9F 5E           160           POP     SI
0CA0 5B           161           POP     BX
0CA1 5A           162           POP     DX
0CA2 59           163           POP     CX
0CA3 7807         164           JS      SW0
0CA5 80FC05       165           CMP     AH,5
0CA8 7402         166           JZ      SW0
0CAA 8B04         167           MOV     AX,[SI]
0CAC C3           168   SW0:    RET
0CAD E877FB       169   BORW:   CALL    CC
0CB0 7435         170           JZ      BORW8
0CB2 E8E0FF       171           CALL    SW
0CB5 7529         172           JNZ     BORW3
0CB7 3C10         173           CMP     AL,10H
0CB9 7325         174           JNC     BORW3
0CBB 01DE         175           ADD     SI,BX
0CBD BFE523       176           MOV     DI,WADJ
0CC0 3C08         177           CMP     AL,8
0CC2 7201         178           JC      BORW2
0CC4 47           179           INC     DI
0CC5 8605         180   BORW2:  XCHG    AL,[DI]
0CC7 84C0         181           TEST    AL,AL
0CC9 7517         182           JNZ     BORW1
0CCB E859FB       183           CALL    CC
0CCE 741C         184           JZ      BORW0
0CD0 E8C2FF       185           CALL    SW
0CD3 750B         186           JNZ     BORW3
0CD5 3C10         187           CMP     AL,10H
0CD7 7571         188           JNZ     RA1
0CD9 01DE         189           ADD     SI,BX
0CDB E849FB       190           CALL    CC
0CDE 740C         191           JZ      BORW0
0CE0 F8           192   BORW3:  CLC
PC-72 ASSEMBLER VERSION 1.05        8086.ASM        26

0CE1 C3           193           RET
0CE2 B001         194   BORW1:  MOV     AL,1
0CE4 E93DFD       195           JMP     FAIL
0CE7 B008         196   BORW8:  MOV     AL,8
0CE9 E938FD       197           JMP     FAIL
0CEC F9           198   BORW0:  STC
0CED C3           199           RET
0CEE 31D2         200   RA:     XOR     DX,DX
0CF0 31C9         201           XOR     CX,CX
0CF2 8916E523     202           MOV     [WADJ],DX
0CF6 E8B4FF       203   RAS:    CALL    BORW
0CF9 722C         204           JC      RAIX
0CFB 3C5B         205           CMP     AL,5BH
0CFD 7455         206           JZ      RAM
0CFF E876FF       207           CALL    SCREG
0D02 7426         208           JZ      RAR
0D04 E89606       209   RAL:    CALL    RI
0D07 BA0403       210           MOV     DX,304H
0D0A 86CE         211           XCHG    DH,CL
0D0C 20CE         212           AND     DH,CL
0D0E 750A         213           JNZ     RAIW
0D10 84E4         214           TEST    AH,AH
0D12 7405         215           JZ      RAIB
0D14 E86AFB       216           CALL    AA
0D17 7201         217           JC      RAIW
0D19 49           218   RAIB:   DEC     CX
0D1A A0E523       219   RAIW:   MOV     AL,[WADJ]
0D1D 84C0         220           TEST    AL,AL
0D1F 7406         221           JZ      RAIX
0D21 B102         222           MOV     CL,2
0D23 48           223           DEC     AX
0D24 7401         224           JZ      RAIX
0D26 41           225           INC     CX
0D27 E9C800       226   RAIX:   JMP     WARG
0D2A E82801       227   RAR:    CALL    GSPR
0D2D 73C7         228           JNC     RAS
0D2F 88C6         229           MOV     DH,AL
0D31 3C10         230           CMP     AL,10H
0D33 9F           231           LAHF
0D34 3C08         232           CMP     AL,8
0D36 18C0         233           SBB     AL,AL
0D38 0402         234           ADD     AL,2
0D3A A2E523       235           MOV     [WADJ],AL
0D3D 9E           236           SAHF
0D3E 18C0         237           SBB     AL,AL
0D40 0402         238           ADD     AL,2
0D42 80E607       239           AND     DH,7
0D45 88C2         240           MOV     DL,AL
0D47 E9A800       241           JMP     WARG
0D4A B001         242   RA1:    MOV     AL,1
0D4C E9D5FC       243           JMP     FAIL
0D4F B008         244   RA8:    MOV     AL,8
0D51 E9D0FC       245           JMP     FAIL
0D54 46           246   RAM:    INC     SI
0D55 E855FF       247           CALL    BORW
0D58 31D2         248           XOR     DX,DX
0D5A 30C9         249           XOR     CL,CL
0D5C E8C8FA       250   RAD:    CALL    CC
0D5F 74EE         251           JZ      RA8
0D61 3C5D         252           CMP     AL,5DH
0D63 745C         253           JZ      RADX
0D65 3C2B         254           CMP     AL,2BH
0D67 741B         255           JZ      RADP
0D69 3C2D         256           CMP     AL,2DH
PC-72 ASSEMBLER VERSION 1.05        8086.ASM        27

0D6B 7414         257           JZ      RADM
0D6D E808FF       258           CALL    SCREG
0D70 7418         259           JZ      RADR
0D72 52           260           PUSH    DX
0D73 B224         261           MOV     DL,24H
0D75 E80DFD       262           CALL    GV
0D78 5A           263           POP     DX
0D79 72CF         264           JC      RA1
0D7B 0106EF23     265           ADD     [DISP],AX
0D7F EBDB         266           JMP     SHORT RAD
0D81 80F180       267   RADM:   XOR     CL,80H
0D84 80E1BF       268   RADP:   AND     CL,0BFH
0D87 46           269           INC     SI
0D88 EBD2         270           JMP     SHORT RAD
0D8A B201         271   RADR:   MOV     DL,1
0D8C 3C0B         272           CMP     AL,11
0D8E 7421         273           JZ      BXD
0D90 3C0D         274           CMP     AL,13
0D92 741B         275           JZ      BPD
0D94 3C0E         276           CMP     AL,14
0D96 7413         277           JZ      SID
0D98 3C0F         278           CMP     AL,15
0D9A 7411         279           JZ      DID
0D9C E8B600       280           CALL    GSPR
0D9F 73BB         281           JNC     RAD
0DA1 B00D         282   RA0D:   MOV     AL,0DH
0DA3 E97EFC       283           JMP     FAIL
0DA6 B002         284   RA2:    MOV     AL,2
0DA8 E979FC       285           JMP     FAIL
0DAB D0E2         286   SID:    SHL     DL,1
0DAD D0E2         287   DID:    SHL     DL,1
0DAF D0E2         288   BPD:    SHL     DL,1
0DB1 84D6         289   BXD:    TEST    DH,DL
0DB3 75F1         290           JNZ     RA2
0DB5 F6C180       291           TEST    CL,80H
0DB8 75EC         292           JNZ     RA2
0DBA 08D6         293           OR      DH,DL
0DBC 80C940       294           OR      CL,40H
0DBF EB9B         295           JMP     SHORT RAD
0DC1 F6C140       296   RADX:   TEST    CL,40H
0DC4 7489         297           JZ      RA8
0DC6 46           298           INC     SI
0DC7 88F0         299           MOV     AL,DH
0DC9 BB1619       300           MOV     BX,RM
0DCC D7           301           XLATB
0DCD 3CFF         302           CMP     AL,0FFH
0DCF 74D0         303           JZ      RA0D
0DD1 B203         304           MOV     DL,3
0DD3 88C6         305           MOV     DH,AL
0DD5 3C0E         306           CMP     AL,0EH
0DD7 7417         307           JZ      RADW
0DD9 20D1         308           AND     CL,DL
0DDB 7513         309           JNZ     RADW
0DDD A1EF23       310           MOV     AX,[DISP]
0DE0 85C0         311           TEST    AX,AX
0DE2 7505         312           JNZ     RADB
0DE4 80FE06       313           CMP     DH,6
0DE7 7509         314           JNZ     WARG
0DE9 B108         315   RADB:   MOV     CL,8
0DEB E893FA       316           CALL    AA
0DEE 7302         317           JNC     WARG
0DF0 B10C         318   RADW:   MOV     CL,0CH
0DF2 080EEB23     319   WARG:   OR      [FLAGS],CL
0DF6 A1E523       320           MOV     AX,[WADJ]
PC-72 ASSEMBLER VERSION 1.05        8086.ASM        28

0DF9 B104         321           MOV     CL,4
0DFB F606E7230F   322           TEST    BYTE [ARGS],0FH
0E00 7404         323           JZ      NARGS
0E02 D3C0         324           ROL     AX,CL
0E04 D3C2         325           ROL     DX,CL
0E06 0906E923     326   NARGS:  OR      [ARGS+2],AX
0E0A 0916E723     327           OR      [ARGS],DX
0E0E E816FA       328           CALL    CC
0E11 7508         329           JNZ     COMMA
0E13 A1E723       330           MOV     AX,[ARGS]
0E16 8A2EE923     331           MOV     CH,[ARGS+2]
0E1A C3           332           RET
0E1B 46           333   COMMA:  INC     SI
0E1C 3C3A         334           CMP     AL,3AH
0E1E 7411         335           JZ      COL
0E20 3C2C         336           CMP     AL,2CH
0E22 752C         337           JNZ     GSPR1
0E24 E800FA       338           CALL    CC
0E27 7403         339           JZ      COMMA8
0E29 E9C2FE       340           JMP     RA
0E2C B008         341   COMMA8: MOV     AL,8
0E2E E9F3FB       342           JMP     FAIL
0E31 A0E723       343   COL:    MOV     AL,[ARGS]
0E34 3C04         344           CMP     AL,4
0E36 7518         345           JNZ     GSPR1
0E38 A1F123       346           MOV     AX,[IMM]
0E3B 8706EF23     347           XCHG    AX,[DISP]
0E3F A3F123       348           MOV     [IMM],AX
0E42 E85805       349           CALL    RI
0E45 BA0403       350           MOV     DX,304H
0E48 20CE         351           AND     DH,CL
0E4A B002         352           MOV     AL,2
0E4C B10F         353           MOV     CL,0FH
0E4E EBA2         354           JMP     SHORT WARG
0E50 B001         355   GSPR1:  MOV     AL,1
0E52 E9CFFB       356           JMP     FAIL
0E55 3C10         357   GSPR:   CMP     AL,10H
0E57 722A         358           JC      GSPR0
0E59 86E0         359           XCHG    AL,AH
0E5B E8C9F9       360           CALL    CC
0E5E 86E0         361           XCHG    AL,AH
0E60 7421         362           JZ      GSPR0
0E62 80FC3A       363           CMP     AH,3AH
0E65 751C         364           JNZ     GSPR0
0E67 2403         365           AND     AL,3
0E69 D0E0         366           SHL     AL,1
0E6B D0E0         367           SHL     AL,1
0E6D D0E0         368           SHL     AL,1
0E6F 0C26         369           OR      AL,26H
0E71 46           370   GSPR2:  INC     SI
0E72 A2EC23       371           MOV     [SEGPREF],AL
0E75 A0EB23       372           MOV     AL,[FLAGS]
0E78 A840         373           TEST    AL,40H
0E7A 75D4         374           JNZ     GSPR1
0E7C 0C40         375           OR      AL,40H
0E7E A2EB23       376           MOV     [FLAGS],AL
0E81 F8           377           CLC
0E82 C3           378           RET
0E83 F9           379   GSPR0:  STC
0E84 C3           380           RET
0E85 50           381   WA:     PUSH    AX
0E86 51           382           PUSH    CX
0E87 24F0         383           AND     AL,0F0H
0E89 88EC         384           MOV     AH,CH
PC-72 ASSEMBLER VERSION 1.05        8086.ASM        29

0E8B 86E8         385           XCHG    AL,CH
0E8D D2EC         386           SHR     AH,CL
0E8F 250F0F       387           AND     AX,0F0FH
0E92 7422         388           JZ      WAZ
0E94 84C0         389           TEST    AL,AL
0E96 7417         390           JZ      WALZ
0E98 84E4         391           TEST    AH,AH
0E9A 7415         392           JZ      WAHZ
0E9C 38E0         393           CMP     AL,AH
0E9E 7411         394           JZ      WAHZ
0EA0 80FD40       395           CMP     CH,40H
0EA3 740C         396           JZ      WAHZ
0EA5 B006         397   WA6:    MOV     AL,6
0EA7 E97AFB       398           JMP     FAIL
0EAA 30C0         399   WA0:    XOR     AL,AL
0EAC E975FB       400           JMP     FAIL
0EAF 88E0         401   WALZ:   MOV     AL,AH
0EB1 3C03         402   WAHZ:   CMP     AL,3
0EB3 73F5         403           JNC     WA0
0EB5 48           404           DEC     AX
0EB6 A2E523       405   WAZ:    MOV     [WADJ],AL
0EB9 F606EB2302   406           TEST    BYTE [FLAGS],2
0EBE 740E         407           JZ      WAE
0EC0 84C0         408           TEST    AL,AL
0EC2 740D         409           JZ      WAB
0EC4 80FC01       410           CMP     AH,1
0EC7 7408         411           JZ      WAB
0EC9 800EEB2301   412           OR      BYTE [FLAGS],1
0ECE 59           413   WAE:    POP     CX
0ECF 58           414           POP     AX
0ED0 C3           415           RET
0ED1 8026EB23FE   416   WAB:    AND     BYTE [FLAGS],0FEH
0ED6 F606D52301   417           TEST    BYTE [FUNC],1
0EDB 75F1         418           JNZ     WAE
0EDD A1F123       419           MOV     AX,[IMM]
0EE0 84E4         420           TEST    AH,AH
0EE2 74EA         421           JZ      WAE
0EE4 E89AF9       422           CALL    AA
0EE7 73E5         423           JNC     WAE
0EE9 B007         424   WA7:    MOV     AL,7
0EEB E936FB       425           JMP     FAIL
0EEE 800EEB2310   426   MMODRM: OR      BYTE [FLAGS],10H
0EF3 A1E723       427           MOV     AX,[ARGS]
0EF6 B104         428           MOV     CL,4
0EF8 3C11         429           CMP     AL,11H
0EFA 745C         430           JZ      MREGR
0EFC 3C12         431           CMP     AL,12H
0EFE 7456         432           JZ      MREGL
0F00 3C13         433           CMP     AL,13H
0F02 742E         434           JZ      MMEMR
0F04 3C21         435           CMP     AL,21H
0F06 7450         436           JZ      MREGR
0F08 3C23         437           CMP     AL,23H
0F0A 7426         438           JZ      MMEMR
0F0C 3C31         439           CMP     AL,31H
0F0E 7420         440           JZ      MMEML
0F10 3C32         441           CMP     AL,32H
0F12 741C         442           JZ      MMEML
0F14 250F0F       443           AND     AX,0F0FH
0F17 3C01         444           CMP     AL,1
0F19 743D         445           JZ      MREGR
0F1B 3C03         446           CMP     AL,3
0F1D 7413         447           JZ      MMEMR
0F1F A1E723       448           MOV     AX,[ARGS]
PC-72 ASSEMBLER VERSION 1.05        8086.ASM        30

0F22 D3C8         449           ROR     AX,CL
0F24 250F0F       450           AND     AX,0F0FH
0F27 3C01         451           CMP     AL,1
0F29 742D         452           JZ      MREGR
0F2B 3C03         453           CMP     AL,3
0F2D 7403         454           JZ      MMEMR
0F2F C3           455           RET
0F30 D2CC         456   MMEML:  ROR     AH,CL
0F32 88E0         457   MMEMR:  MOV     AL,AH
0F34 50           458           PUSH    AX
0F35 250770       459           AND     AX,7007H
0F38 D0CC         460           ROR     AH,1
0F3A 08E0         461           OR      AL,AH
0F3C 0806EE23     462           OR      [MODRM],AL
0F40 58           463           POP     AX
0F41 2408         464           AND     AL,8
0F43 7522         465           JNZ     MM0
0F45 A0EB23       466           MOV     AL,[FLAGS]
0F48 240C         467           AND     AL,0CH
0F4A 741B         468           JZ      MM0
0F4C B440         469           MOV     AH,40H
0F4E 2404         470           AND     AL,4
0F50 7411         471           JZ      MM8
0F52 D0E4         472           SHL     AH,1
0F54 EB0D         473           JMP     SHORT MM8
0F56 D2CC         474   MREGL:  ROR     AH,CL
0F58 88E0         475   MREGR:  MOV     AL,AH
0F5A D0CC         476           ROR     AH,1
0F5C 250738       477           AND     AX,3807H
0F5F 0CC0         478           OR      AL,0C0H
0F61 08C4         479           OR      AH,AL
0F63 0826EE23     480   MM8:    OR      [MODRM],AH
0F67 C3           481   MM0:    RET
0F68 56           482   WMN:    PUSH    SI
0F69 89D6         483           MOV     SI,DX
0F6B 30ED         484           XOR     CH,CH
0F6D 41           485           INC     CX
0F6E 31C0         486           XOR     AX,AX
0F70 01C6         487   WMN1:   ADD     SI,AX
0F72 AD           488           LODSW
0F73 AC           489           LODSB
0F74 30E4         490           XOR     AH,AH
0F76 E2F8         491           LOOP    WMN1
0F78 91           492           XCHG    AX,CX
0F79 F3A4         493           REPZ    MOVSB
0F7B 5E           494           POP     SI
0F7C C3           495           RET
0F7D E86EFD       496   G2:     CALL    RA
0F80 50           497           PUSH    AX
0F81 250F0F       498           AND     AX,0F0FH
0F84 A3E723       499           MOV     [ARGS],AX
0F87 B0D0         500           MOV     AL,0D0H
0F89 8606ED23     501           XCHG    AL,[OPCODE]
0F8D A2EE23       502           MOV     [MODRM],AL
0F90 88E8         503           MOV     AL,CH
0F92 240F         504           AND     AL,0FH
0F94 7407         505           JZ      G2B
0F96 48           506           DEC     AX
0F97 7404         507           JZ      G2B
0F99 0806ED23     508           OR      [OPCODE],AL
0F9D 58           509   G2B:    POP     AX
0F9E 25F0F0       510           AND     AX,0F0F0H
0FA1 3D1010       511           CMP     AX,1010H
0FA4 7411         512           JZ      G2CL
PC-72 ASSEMBLER VERSION 1.05        8086.ASM        31

0FA6 3C40         513           CMP     AL,40H
0FA8 7508         514           JNZ     G2F
0FAA A1F123       515           MOV     AX,[IMM]
0FAD 3D0100       516           CMP     AX,1
0FB0 740A         517           JZ      G2N
0FB2 B001         518   G2F:    MOV     AL,1
0FB4 E96DFA       519           JMP     FAIL
0FB7 800EED2302   520   G2CL:   OR      BYTE [OPCODE],2
0FBC 8026EB23FC   521   G2N:    AND     BYTE [FLAGS],0FCH
0FC1 E92AFF       522           JMP     MMODRM
0FC4 E827FD       523   G1:     CALL    RA
0FC7 E8BBFE       524           CALL    WA
0FCA B504         525           MOV     CH,4
0FCC 80E40F       526           AND     AH,0FH
0FCF 3D4100       527           CMP     AX,41H
0FD2 7448         528           JZ      G1AI
0FD4 3C11         529           CMP     AL,11H
0FD6 743A         530           JZ      G1MR
0FD8 3C13         531           CMP     AL,13H
0FDA 7436         532           JZ      G1MR
0FDC 3C31         533           CMP     AL,31H
0FDE 742D         534           JZ      G1RM
0FE0 3C41         535           CMP     AL,41H
0FE2 7404         536           JZ      G1MI
0FE4 3C43         537           CMP     AL,43H
0FE6 753E         538           JNZ     ERR0
0FE8 B080         539   G1MI:   MOV     AL,80H
0FEA 8606ED23     540           XCHG    AL,[OPCODE]
0FEE 0806EE23     541           OR      [MODRM],AL
0FF2 A1F123       542           MOV     AX,[IMM]
0FF5 E889F8       543           CALL    AA
0FF8 7218         544           JC      G1MR
0FFA A0E923       545           MOV     AL,[ARGS+2]
0FFD 3C22         546           CMP     AL,22H
0FFF 7411         547           JZ      G1MR
1001 8026EB23FE   548           AND     BYTE [FLAGS],0FEH
1006 F606E523FF   549           TEST    BYTE [WADJ],0FFH
100B 7405         550           JZ      G1MR
100D 800EED2302   551   G1RM:   OR      BYTE [OPCODE],2
1012 A0E523       552   G1MR:   MOV     AL,[WADJ]
1015 0806ED23     553           OR      [OPCODE],AL
1019 E9D2FE       554           JMP     MMODRM
101C A0E523       555   G1AI:   MOV     AL,[WADJ]
101F 08E8         556           OR      AL,CH
1021 0806ED23     557           OR      [OPCODE],AL
1025 C3           558           RET
1026 B000         559   ERR0:   MOV     AL,0
1028 E9F9F9       560           JMP     FAIL
102B E8C0FC       561   G3:     CALL    RA
102E E854FE       562           CALL    WA
1031 B5A8         563           MOV     CH,0A8H
1033 80E40F       564           AND     AH,0FH
1036 3D4100       565           CMP     AX,41H
1039 74E1         566           JZ      G1AI
103B B5F6         567           MOV     CH,0F6H
103D 3C01         568           CMP     AL,1
103F 741A         569           JZ      G3R
1041 3C03         570           CMP     AL,3
1043 7416         571           JZ      G3R
1045 3C41         572           CMP     AL,41H
1047 7412         573           JZ      G3R
1049 3C43         574           CMP     AL,43H
104B 740E         575           JZ      G3R
104D B584         576           MOV     CH,84H
PC-72 ASSEMBLER VERSION 1.05        8086.ASM        32

104F 3C11         577           CMP     AL,11H
1051 7408         578           JZ      G3R
1053 3C13         579           CMP     AL,13H
1055 7404         580           JZ      G3R
1057 3C31         581           CMP     AL,31H
1059 75CB         582           JNZ     ERR0
105B A0E523       583   G3R:    MOV     AL,[WADJ]
105E 08E8         584           OR      AL,CH
1060 8606ED23     585           XCHG    AL,[OPCODE]
1064 0806EE23     586           OR      [MODRM],AL
1068 E983FE       587           JMP     MMODRM
106B E880FC       588   G4:     CALL    RA
106E E814FE       589           CALL    WA
1071 3C02         590           CMP     AL,2
1073 7438         591           JZ      G4S
1075 3C03         592           CMP     AL,3
1077 7416         593           JZ      G4M
1079 3C01         594           CMP     AL,1
107B 75A9         595           JNZ     ERR0
107D 80FD02       596           CMP     CH,2
1080 720D         597           JC      G4M
1082 A0ED23       598           MOV     AL,[OPCODE]
1085 2418         599           AND     AL,18H
1087 0C40         600           OR      AL,40H
1089 08E0         601           OR      AL,AH
108B A2ED23       602           MOV     [OPCODE],AL
108E C3           603           RET
108F A0ED23       604   G4M:    MOV     AL,[OPCODE]
1092 3C38         605           CMP     AL,38H
1094 B88F00       606           MOV     AX,8FH
1097 740E         607           JZ      G4P
1099 A0E523       608           MOV     AL,[WADJ]
109C 84ED         609           TEST    CH,CH
109E 7501         610           JNZ     G4W
10A0 40           611           INC     AX
10A1 0CFE         612   G4W:    OR      AL,0FEH
10A3 8A26ED23     613           MOV     AH,[OPCODE]
10A7 A3ED23       614   G4P:    MOV     [OPCODE],AX
10AA E941FE       615           JMP     MMODRM
10AD 49           616   G4S:    DEC     CX
10AE D2E4         617           SHL     AH,CL
10B0 A0ED23       618           MOV     AL,[OPCODE]
10B3 D2E8         619           SHR     AL,CL
10B5 2401         620           AND     AL,1
10B7 08E0         621           OR      AL,AH
10B9 0C06         622           OR      AL,6
10BB A2ED23       623           MOV     [OPCODE],AL
10BE C3           624           RET
10BF E82CFC       625   G6:     CALL    RA
10C2 3C01         626           CMP     AL,1
10C4 740C         627           JZ      G6R
10C6 3C04         628           CMP     AL,4
10C8 743B         629           JZ      G6I
10CA 3C44         630           CMP     AL,44H
10CC 744A         631           JZ      G6IF
10CE 3C03         632           CMP     AL,3
10D0 756E         633           JNZ     G6F0
10D2 A0EA23       634   G6R:    MOV     AL,[ARGS+3]
10D5 3C08         635           CMP     AL,8
10D7 7467         636           JZ      G6F0
10D9 3C09         637           CMP     AL,9
10DB 7417         638           JZ      G6RN
10DD 3C0A         639           CMP     AL,0AH
10DF 740E         640           JZ      G6RF
PC-72 ASSEMBLER VERSION 1.05        8086.ASM        33

10E1 88E8         641           MOV     AL,CH
10E3 3C00         642           CMP     AL,0
10E5 740D         643           JZ      G6RN
10E7 3C02         644           CMP     AL,2
10E9 7409         645           JZ      G6RN
10EB 3C03         646           CMP     AL,3
10ED 7551         647           JNZ     G6F0
10EF 800EEE2308   648   G6RF:   OR      BYTE [MODRM],8
10F4 B1FF         649   G6RN:   MOV     CL,0FFH
10F6 860EED23     650           XCHG    CL,[OPCODE]
10FA B010         651           MOV     AL,10H
10FC D2E0         652           SHL     AL,CL
10FE 0806EE23     653           OR      [MODRM],AL
1102 E9E9FD       654           JMP     MMODRM
1105 A0EA23       655   G6I:    MOV     AL,[ARGS+3]
1108 3C00         656           CMP     AL,0
110A 7439         657           JZ      G6IN
110C 3C08         658           CMP     AL,8
110E 7426         659           JZ      G6IS
1110 3C09         660           CMP     AL,9
1112 7431         661           JZ      G6IN
1114 3C0A         662           CMP     AL,0AH
1116 7528         663           JNZ     G6F0
1118 A1F123       664   G6IF:   MOV     AX,[IMM]
111B 8706EF23     665           XCHG    AX,[DISP]
111F A3F123       666           MOV     [IMM],AX
1122 800EEB230F   667           OR      BYTE [FLAGS],0FH
1127 B8EA9A       668           MOV     AX,9AEAH
112A 8626ED23     669           XCHG    AH,[OPCODE]
112E 84E4         670           TEST    AH,AH
1130 7403         671           JZ      G5X
1132 A2ED23       672           MOV     [OPCODE],AL
1135 C3           673   G5X:    RET
1136 B0EB         674   G6IS:   MOV     AL,0EBH
1138 8606ED23     675           XCHG    AL,[OPCODE]
113C 84C0         676           TEST    AL,AL
113E 7524         677           JNZ     G5S
1140 B000         678   G6F0:   MOV     AL,0
1142 E9DFF8       679           JMP     FAIL
1145 A1F123       680   G6IN:   MOV     AX,[IMM]
1148 2B06DB23     681           SUB     AX,[PC]
114C 2B06DF23     682           SUB     AX,[VORG]
1150 2D0300       683           SUB     AX,3
1153 A3F123       684           MOV     [IMM],AX
1156 800EEB2303   685           OR      BYTE [FLAGS],3
115B 800EED23E8   686           OR      BYTE [OPCODE],0E8H
1160 C3           687           RET
1161 E88AFB       688   G5:     CALL    RA
1164 8026EB23FE   689   G5S:    AND     BYTE [FLAGS],0FEH
1169 A1F123       690           MOV     AX,[IMM]
116C 2B06DB23     691           SUB     AX,[PC]
1170 2B06DF23     692           SUB     AX,[VORG]
1174 2D0200       693           SUB     AX,2
1177 A3F123       694           MOV     [IMM],AX
117A F606D52302   695           TEST    BYTE [FUNC],2
117F 74B4         696           JZ      G5X
1181 E8FDF6       697           CALL    AA
1184 73AF         698           JNC     G5X
1186 B005         699           MOV     AL,5
1188 E999F8       700           JMP     FAIL
118B E860FB       701   G8:     CALL    RA
118E 3C31         702           CMP     AL,31H
1190 75AE         703           JNZ     G6F0
1192 E959FD       704           JMP     MMODRM
PC-72 ASSEMBLER VERSION 1.05        8086.ASM        34

1195 E856FB       705   G9:     CALL    RA
1198 E8EAFC       706           CALL    WA
119B 30ED         707           XOR     CH,CH
119D 3D31E0       708           CMP     AX,0E031H
11A0 7437         709           JZ      G9A
11A2 3D130E       710           CMP     AX,0E13H
11A5 7430         711           JZ      G9A2
11A7 3C11         712           CMP     AL,11H
11A9 7458         713           JZ      G9MR
11AB 3C13         714           CMP     AL,13H
11AD 7454         715           JZ      G9MR
11AF 3C21         716           CMP     AL,21H
11B1 7444         717           JZ      G9SR
11B3 3C23         718           CMP     AL,23H
11B5 7440         719           JZ      G9SR
11B7 3C43         720           CMP     AL,43H
11B9 7443         721           JZ      G9MI
11BB B502         722           MOV     CH,2
11BD 3C12         723           CMP     AL,12H
11BF 7436         724           JZ      G9SR
11C1 3C31         725           CMP     AL,31H
11C3 743E         726           JZ      G9MR
11C5 3C32         727           CMP     AL,32H
11C7 742E         728           JZ      G9SR
11C9 B5B0         729           MOV     CH,0B0H
11CB 3C41         730           CMP     AL,41H
11CD 7569         731           JNZ     G9F0
11CF A0E523       732           MOV     AL,[WADJ]
11D2 49           733           DEC     CX
11D3 D2E0         734           SHL     AL,CL
11D5 EB18         735           JMP     SHORT G9S
11D7 B502         736   G9A2:   MOV     CH,2
11D9 A1EF23       737   G9A:    MOV     AX,[DISP]
11DC A3F123       738           MOV     [IMM],AX
11DF A0EB23       739           MOV     AL,[FLAGS]
11E2 25E300       740           AND     AX,0E3H
11E5 0C03         741           OR      AL,3
11E7 A2EB23       742           MOV     [FLAGS],AL
11EA A0E523       743           MOV     AL,[WADJ]
11ED 0CA0         744           OR      AL,0A0H
11EF 08E0         745   G9S:    OR      AL,AH
11F1 08E8         746           OR      AL,CH
11F3 A2ED23       747           MOV     [OPCODE],AL
11F6 C3           748           RET
11F7 B08C         749   G9SR:   MOV     AL,8CH
11F9 A2ED23       750           MOV     [OPCODE],AL
11FC EB08         751           JMP     SHORT G9M
11FE B0C6         752   G9MI:   MOV     AL,0C6H
1200 A2ED23       753           MOV     [OPCODE],AL
1203 A0E523       754   G9MR:   MOV     AL,[WADJ]
1206 08E8         755   G9M:    OR      AL,CH
1208 0806ED23     756           OR      [OPCODE],AL
120C E9DFFC       757           JMP     MMODRM
120F E8DCFA       758   G0EH:   CALL    RA
1212 3C14         759           CMP     AL,14H
1214 7404         760           JZ      G0EHRM
1216 3C34         761           CMP     AL,34H
1218 751E         762           JNZ     G9F0
121A A1F123       763   G0EHRM: MOV     AX,[IMM]
121D 3D3F00       764           CMP     AX,3FH
1220 7733         765           JA      G0CHF
1222 88C4         766           MOV     AH,AL
1224 49           767           DEC     CX
1225 D2C8         768           ROR     AL,CL
PC-72 ASSEMBLER VERSION 1.05        8086.ASM        35

1227 250707       769           AND     AX,707H
122A D2C4         770           ROL     AH,CL
122C 0906ED23     771           OR      [OPCODE],AX
1230 8026EB23FC   772           AND     BYTE [FLAGS],0FCH
1235 E9B6FC       773           JMP     MMODRM
1238 B000         774   G9F0:   MOV     AL,0
123A E9E7F7       775           JMP     FAIL
123D E8E7F5       776   G7:     CALL    CC
1240 750C         777           JNZ     G7A
1242 B80A00       778           MOV     AX,0AH
1245 A3F123       779           MOV     [IMM],AX
1248 800EEB2302   780   G7B:    OR      BYTE [FLAGS],2
124D C3           781           RET
124E E84C01       782   G7A:    CALL    RI
1251 84E4         783           TEST    AH,AH
1253 74F3         784           JZ      G7B
1255 B007         785   G0CHF:  MOV     AL,7
1257 E9CAF7       786           JMP     FAIL
125A E8B3F8       787   G0CH:   CALL    RE
125D 3D0300       788           CMP     AX,3
1260 740A         789           JZ      G0CH3
1262 84E4         790           TEST    AH,AH
1264 75EF         791           JNZ     G0CHF
1266 800EEB2302   792           OR      BYTE [FLAGS],2
126B C3           793           RET
126C FE0EED23     794   G0CH3:  DEC     BYTE [OPCODE]
1270 C3           795           RET
1271 E87AFA       796   G0DH:   CALL    RA
1274 8026EB23FE   797           AND     BYTE [FLAGS],0FEH
1279 3C41         798           CMP     AL,41H
127B 7415         799           JZ      G0DHI
127D 3C14         800           CMP     AL,14H
127F 740F         801           JZ      G0DHO
1281 800EED2308   802           OR      BYTE [OPCODE],8
1286 3D1120       803           CMP     AX,2011H
1289 7407         804           JZ      G0DHI
128B 3D1102       805           CMP     AX,211H
128E 75A8         806           JNZ     G9F0
1290 D2ED         807   G0DHO:  SHR     CH,CL
1292 88E8         808   G0DHI:  MOV     AL,CH
1294 240F         809           AND     AL,0FH
1296 3C02         810           CMP     AL,2
1298 7204         811           JC      G0DH0
129A FE06ED23     812           INC     BYTE [OPCODE]
129E C3           813   G0DH0:  RET
129F E84CFA       814   G0FH:   CALL    RA
12A2 E8E0FB       815           CALL    WA
12A5 3C13         816           CMP     AL,13H
12A7 7419         817           JZ      G0FHM
12A9 3C31         818           CMP     AL,31H
12AB 7415         819           JZ      G0FHM
12AD 3C11         820           CMP     AL,11H
12AF 7587         821           JNZ     G9F0
12B1 A0E523       822           MOV     AL,[WADJ]
12B4 A8FF         823           TEST    AL,0FFH
12B6 740A         824           JZ      G0FHM
12B8 88E0         825           MOV     AL,AH
12BA A80F         826           TEST    AL,0FH
12BC 740F         827           JZ      G0FHAR
12BE A8F0         828           TEST    AL,0F0H
12C0 740D         829           JZ      G0FHRA
12C2 A0E523       830   G0FHM:  MOV     AL,[WADJ]
12C5 0C86         831           OR      AL,86H
12C7 A2ED23       832           MOV     [OPCODE],AL
PC-72 ASSEMBLER VERSION 1.05        8086.ASM        36

12CA E921FC       833           JMP     MMODRM
12CD D2E8         834   G0FHAR: SHR     AL,CL
12CF 0C90         835   G0FHRA: OR      AL,90H
12D1 A2ED23       836           MOV     [OPCODE],AL
12D4 E850F5       837   G0BH:   CALL    CC
12D7 7420         838           JZ      G0
12D9 E812FA       839           CALL    RA
12DC 3C04         840           CMP     AL,4
12DE 7509         841           JNZ     G0BH1
12E0 800EEB2303   842           OR      BYTE [FLAGS],3
12E5 FE0EED23     843           DEC     BYTE [OPCODE]
12E9 A0EA23       844   G0BH1:  MOV     AL,[ARGS+3]
12EC 3C09         845           CMP     AL,9
12EE 7409         846           JZ      G0
12F0 3C0A         847           CMP     AL,10
12F2 7505         848           JNZ     G0
12F4 800EED2308   849   G0BH2:  OR      BYTE [OPCODE],8
12F9 C3           850   G0:     RET
12FA A1DB23       851   D0:     MOV     AX,[PC]
12FD D0E8         852           SHR     AL,1
12FF 18C0         853           SBB     AL,AL
1301 2420         854           AND     AL,20H
1303 A2EB23       855           MOV     [FLAGS],AL
1306 31C9         856           XOR     CX,CX
1308 C3           857           RET
1309 A0D523       858   D1:     MOV     AL,[FUNC]
130C A803         859           TEST    AL,3
130E 7406         860           JZ      D1S
1310 E88A00       861           CALL    RI
1313 89EF         862           MOV     DI,BP
1315 AB           863           STOSW
1316 31C9         864   D1S:    XOR     CX,CX
1318 C3           865           RET
1319 31D2         866   D9:     XOR     DX,DX
131B E809F5       867           CALL    CC
131E 740A         868           JZ      D2
1320 E87A00       869           CALL    RI
1323 89C2         870           MOV     DX,AX
1325 EB03         871           JMP     SHORT D2
1327 E812F7       872   D7:     CALL    SETINC
132A A0ED23       873   D2:     MOV     AL,[OPCODE]
132D E9F4F6       874           JMP     FAIL
1330 E86A00       875   D3:     CALL    RI
1333 A3DF23       876           MOV     [VORG],AX
1336 31C9         877           XOR     CX,CX
1338 C3           878           RET
1339 8A2EED23     879   D4:     MOV     CH,[OPCODE]
133D 30C9         880           XOR     CL,CL
133F E960F6       881           JMP     SETDFB
1342 E8E2F4       882   D6:     CALL    CC
1345 3C3A         883           CMP     AL,3AH
1347 750A         884           JNZ     D6D
1349 B03E         885           MOV     AL,3EH
134B E823FB       886           CALL    GSPR2
134E 31C9         887           XOR     CX,CX
1350 E969F8       888           JMP     G0AH
1353 E84700       889   D6D:    CALL    RI
1356 0106DD23     890           ADD     [USIZE],AX
135A 89C1         891           MOV     CX,AX
135C C3           892           RET
135D 8B3E5D23     893   D8:     MOV     DI,[TEMP]
1361 E8C3F4       894   D8L:    CALL    CC
1364 74C4         895           JZ      D2      ;D8P
1366 3C27         896           CMP     AL,27H
PC-72 ASSEMBLER VERSION 1.05        8086.ASM        37

1368 7421         897           JZ      D8Q
136A 3C22         898           CMP     AL,22H
136C 741D         899           JZ      D8Q
136E 3C2C         900           CMP     AL,2CH
1370 7424         901           JZ      D8C
1372 FF36E323     902           PUSH    WORD [STK]
1376 57           903           PUSH    DI
1377 E81F00       904           CALL    D8F
137A 5F           905           POP     DI
137B 8F06E323     906           POP     WORD [STK]
137F 72A9         907           JC      D2      ;D8P
1381 56           908           PUSH    SI
1382 B90A00       909           MOV     CX,10
1385 E88FF5       910           CALL    WN
1388 5E           911           POP     SI
1389 EBD6         912           JMP     SHORT D8L
138B 46           913   D8Q:    INC     SI
138C 83EB02       914           SUB     BX,2
138F 7699         915           JBE     D2      ;D8P
1391 FC           916           CLD
1392 89D9         917           MOV     CX,BX
1394 F3A4         918           REPZ    MOVSB
1396 46           919   D8C:    INC     SI
1397 EBC8         920           JMP     SHORT D8L
1399              921   ;D8P:   MOV     AL,[OPCODE]
1399              922   ;       MOV     SI,[TEMP]
1399              923   ;       MOV     BX,DI
1399              924   ;       SUB     BX,SI
1399              925   ;       JMP     FAIL
1399 8926E323     926   D8F:    MOV     [STK],SP
139D B224         927   RI:     MOV     DL,24H
139F E96EF7       928           JMP     RE
13A2 56           929   DISASM: PUSH    SI
13A3 AC           930           LODSB
13A4 30E4         931           XOR     AH,AH
13A6 A2ED23       932           MOV     [OPCODE],AL
13A9 89C3         933           MOV     BX,AX
13AB 2401         934           AND     AL,1
13AD D0E0         935           SHL     AL,1
13AF D0E0         936           SHL     AL,1
13B1 D0E0         937           SHL     AL,1
13B3 D0E0         938           SHL     AL,1
13B5 A3E523       939           MOV     [WADJ],AX
13B8 8A87EE16     940           MOV     AL,[HDL86+BX]
13BC 93           941           XCHG    AX,BX
13BD 56           942           PUSH    SI
13BE BEEE17       943           MOV     SI,BIN86
13C1 01C6         944           ADD     SI,AX
13C3 AC           945           LODSB
13C4 3C7F         946           CMP     AL,7FH
13C6 730A         947           JNC     DISAS1
13C8 91           948           XCHG    AX,CX
13C9 BA4E19       949           MOV     DX,I8086
13CC E899FB       950           CALL    WMN
13CF B009         951           MOV     AL,9
13D1 AA           952           STOSB
13D2 5E           953   DISAS1: POP     SI
13D3 D1E3         954           SHL     BX,1
13D5 FF97AE16     955           CALL    [DHDL+BX]
13D9 89F1         956           MOV     CX,SI
13DB 5E           957           POP     SI
13DC 29F1         958           SUB     CX,SI
13DE C3           959           RET
13DF 803EED23EB   960   RELBD:  CMP     BYTE [OPCODE],0EBH
PC-72 ASSEMBLER VERSION 1.05        8086.ASM        38

13E4 750C         961           JNZ     NOTJMP
13E6 B91300       962           MOV     CX,19
13E9 BA3E1C       963           MOV     DX,D8086
13EC E879FB       964           CALL    WMN
13EF B020         965           MOV     AL,20H
13F1 AA           966           STOSB
13F2 AC           967   NOTJMP: LODSB
13F3 98           968           CBW
13F4 050200       969           ADD     AX,2
13F7 0306DB23     970           ADD     AX,[PC]
13FB 0306DF23     971           ADD     AX,[VORG]
13FF EB0A         972           JMP     SHORT WHA
1401              973   ;NOTJMP:        MOV     AX,2B24H
1401              974   ;       STOSW
1401              975   ;       LODSB
1401              976   ;       ADD     AL,2
1401              977   ;       JNS     RELBNM
1401              978   ;       DEC     DI
1401              979   ;RELBNM:        CBW
1401 85C0         980   WHAS:   TEST    AX,AX
1403 7906         981           JNS     WHA
1405 F7D8         982           NEG     AX
1407 C6052D       983           MOV     BYTE [DI],2DH
140A 47           984           INC     DI
140B 56           985   WHA:    PUSH    SI
140C 50           986           PUSH    AX
140D B91000       987           MOV     CX,16
1410 E804F5       988           CALL    WN
1413 58           989           POP     AX
1414 5E           990           POP     SI
1415 3D0900       991           CMP     AX,9
1418 7603         992           JNA     WHA0
141A B048         993           MOV     AL,48H
141C AA           994           STOSB
141D C3           995   WHA0:   RET
141E B006         996   MACCD:  MOV     AL,6
1420 EB01         997           JMP     SHORT MRD1
1422 AC           998   MRD:    LODSB
1423 50           999   MRD1:   PUSH    AX
1424 E83400       1000          CALL    WDISP
1427 B02C         1001          MOV     AL,2CH
1429 AA           1002          STOSB
142A 58           1003          POP     AX
142B FC           1004  WREG:   CLD
142C 56           1005          PUSH    SI
142D 89C6         1006          MOV     SI,AX
142F D1EE         1007          SHR     SI,1
1431 D1EE         1008          SHR     SI,1
1433 83E60E       1009          AND     SI,0EH
1436 EB2F         1010          JMP     SHORT WDISP1
1438 AC           1011  WPTR:   LODSB
1439 3CC0         1012          CMP     AL,0C0H
143B 731E         1013          JNC     WDISP
143D BA3E1C       1014          MOV     DX,D8086
1440 50           1015          PUSH    AX
1441 B115         1016          MOV     CL,15H
1443 F606E523FF   1017          TEST    BYTE [WADJ],0FFH
1448 7502         1018          JNZ     WSELF
144A 30C9         1019          XOR     CL,CL
144C E819FB       1020  WSELF:  CALL    WMN
144F B020         1021          MOV     AL,20H
1451 AA           1022          STOSB
1452 B112         1023          MOV     CL,12H
1454 E811FB       1024          CALL    WMN
PC-72 ASSEMBLER VERSION 1.05        8086.ASM        39

1457 B020         1025          MOV     AL,20H
1459 AA           1026          STOSB
145A 58           1027          POP     AX
145B 56           1028  WDISP:  PUSH    SI
145C 89C6         1029          MOV     SI,AX
145E 83E607       1030          AND     SI,7
1461 3CC0         1031          CMP     AL,0C0H
1463 720D         1032          JC      WDD
1465 D1E6         1033          SHL     SI,1
1467 81C62619     1034  WDISP1: ADD     SI,REGS
146B 0336E523     1035          ADD     SI,[WADJ]
146F A5           1036          MOVSW
1470 5E           1037          POP     SI
1471 C3           1038          RET
1472 50           1039  WDD:    PUSH    AX
1473 B05B         1040          MOV     AL,5BH
1475 AA           1041          STOSB
1476 58           1042          POP     AX
1477 24C7         1043          AND     AL,0C7H
1479 3C06         1044          CMP     AL,6
147B 7509         1045          JNZ     WDC
147D 5E           1046          POP     SI
147E AD           1047          LODSW
147F E889FF       1048          CALL    WHA
1482 B05D         1049          MOV     AL,5DH
1484 AA           1050          STOSB
1485 C3           1051          RET
1486 50           1052  WDC:    PUSH    AX
1487 81C60E19     1053          ADD     SI,_DISP
148B 8A14         1054          MOV     DL,[SI]
148D B02B         1055          MOV     AL,2BH
148F B104         1056          MOV     CL,4
1491 89D6         1057  WDL:    MOV     SI,DX
1493 83E60F       1058          AND     SI,0FH
1496 81C63619     1059          ADD     SI,REGS+16
149A A5           1060          MOVSW
149B AA           1061          STOSB
149C D2EA         1062          SHR     DL,CL
149E 75F1         1063          JNZ     WDL
14A0 58           1064          POP     AX
14A1 5E           1065          POP     SI
14A2 3C80         1066          CMP     AL,80H
14A4 7203         1067          JC      WDB
14A6 AD           1068          LODSW
14A7 EB06         1069          JMP     SHORT WDW
14A9 3C40         1070  WDB:    CMP     AL,40H
14AB 7210         1071          JC      WDX
14AD AC           1072          LODSB
14AE 98           1073          CBW
14AF 85C0         1074  WDW:    TEST    AX,AX
14B1 740A         1075          JZ      WDX
14B3 7901         1076          JNS     WDM
14B5 4F           1077          DEC     DI
14B6 E848FF       1078  WDM:    CALL    WHAS
14B9 B05D         1079          MOV     AL,5DH
14BB AA           1080          STOSB
14BC C3           1081          RET
14BD 4F           1082  WDX:    DEC     DI
14BE B05D         1083          MOV     AL,5DH
14C0 AA           1084          STOSB
14C1 C3           1085          RET
14C2 4F           1086  SINGD:  DEC     DI
14C3 C3           1087          RET
14C4 E80C00       1088  SPREFD: CALL    PSRD
PC-72 ASSEMBLER VERSION 1.05        8086.ASM        40

14C7 B03A         1089          MOV     AL,3AH
14C9 AA           1090          STOSB
14CA C3           1091          RET
14CB 30C0         1092  ACCID:  XOR     AL,AL
14CD E85BFF       1093          CALL    WREG
14D0 E95801       1094          JMP     G03DT
14D3 A0ED23       1095  PSRD:   MOV     AL,[OPCODE]
14D6 D0E8         1096  WSR:    SHR     AL,1
14D8 D0E8         1097          SHR     AL,1
14DA 250600       1098          AND     AX,6
14DD 054619       1099          ADD     AX,REGS+20H
14E0 96           1100          XCHG    AX,SI
14E1 FC           1101          CLD
14E2 A5           1102          MOVSW
14E3 96           1103          XCHG    AX,SI
14E4 C3           1104          RET
14E5 B010         1105  MSD:    MOV     AL,10H
14E7 A2E523       1106          MOV     [WADJ],AL
14EA AC           1107          LODSB
14EB 50           1108          PUSH    AX
14EC E86CFF       1109          CALL    WDISP
14EF B02C         1110          MOV     AL,2CH
14F1 AA           1111          STOSB
14F2 58           1112          POP     AX
14F3 E9E0FF       1113          JMP     WSR
14F6 B010         1114  SMD:    MOV     AL,10H
14F8 A2E523       1115          MOV     [WADJ],AL
14FB AC           1116          LODSB
14FC 50           1117          PUSH    AX
14FD E8D6FF       1118          CALL    WSR
1500 B02C         1119          MOV     AL,2CH
1502 AA           1120          STOSB
1503 58           1121          POP     AX
1504 E954FF       1122          JMP     WDISP
1507 A13619       1123  ACCRD:  MOV     AX,[REGS+10H]
150A AB           1124          STOSW
150B B02C         1125          MOV     AL,2CH
150D AA           1126          STOSB
150E B010         1127  REGWD:  MOV     AL,10H
1510 A2E523       1128          MOV     [WADJ],AL
1513 A0ED23       1129          MOV     AL,[OPCODE]
1516 0CC0         1130          OR      AL,0C0H
1518 E940FF       1131          JMP     WDISP
151B A0ED23       1132  RIMMD:  MOV     AL,[OPCODE]
151E 56           1133          PUSH    SI
151F 250F00       1134          AND     AX,0FH
1522 D0E0         1135          SHL     AL,1
1524 50           1136          PUSH    AX
1525 052619       1137          ADD     AX,REGS
1528 89C6         1138          MOV     SI,AX
152A A5           1139          MOVSW
152B 58           1140          POP     AX
152C 2410         1141          AND     AL,10H
152E 5E           1142          POP     SI
152F A2E523       1143          MOV     [WADJ],AL
1532 E9F600       1144          JMP     G03DT
1535 AD           1145  RELWD:  LODSW
1536 050300       1146          ADD     AX,3
1539 0306DB23     1147          ADD     AX,[PC]
153D 0306DF23     1148          ADD     AX,[VORG]
1541 E9C7FE       1149          JMP     WHA
1544              1150  ;RELWD: MOV     AX,2B24H
1544              1151  ;       STOSW
1544              1152  ;       LODSW
PC-72 ASSEMBLER VERSION 1.05        8086.ASM        41

1544              1153  ;       ADD     AX,3
1544              1154  ;       JNS     RELWNM
1544              1155  ;       DEC     DI
1544              1156  ;RELWNM:        JMP     WHAS
1544 AC           1157  AAMD:   LODSB
1545 3C0A         1158          CMP     AL,0AH
1547 7405         1159          JZ      AAMD0
1549 30E4         1160          XOR     AH,AH
154B E8BDFE       1161          CALL    WHA
154E C3           1162  AAMD0:  RET
154F A0ED23       1163  ESCD:   MOV     AL,[OPCODE]
1552 8A24         1164          MOV     AH,[SI]
1554 B103         1165          MOV     CL,3
1556 D2CC         1166          ROR     AH,CL
1558 250707       1167          AND     AX,707H
155B D2C0         1168          ROL     AL,CL
155D 08E0         1169          OR      AL,AH
155F 30E4         1170          XOR     AH,AH
1561 E8A7FE       1171          CALL    WHA
1564 B02C         1172          MOV     AL,2CH
1566 AA           1173          STOSB
1567 AC           1174          LODSB
1568 E9F0FE       1175          JMP     WDISP
156B AC           1176  INTD:   LODSB
156C 30E4         1177          XOR     AH,AH
156E E99AFE       1178          JMP     WHA
1571 B033         1179  INT3D:  MOV     AL,33H
1573 AA           1180          STOSB
1574 C3           1181          RET
1575 B10A         1182  RETFD:  MOV     CL,0AH
1577 BA3E1C       1183          MOV     DX,D8086
157A E8EBF9       1184          CALL    WMN
157D F606ED2301   1185          TEST    BYTE [OPCODE],1
1582 7402         1186          JZ      RETD
1584 4F           1187          DEC     DI
1585 C3           1188          RET
1586 AD           1189  RETD:   LODSW
1587 E981FE       1190          JMP     WHA
158A A1E523       1191  ADIOD:  MOV     AX,[WADJ]
158D 052619       1192          ADD     AX,REGS
1590 56           1193          PUSH    SI
1591 89C6         1194          MOV     SI,AX
1593 AD           1195          LODSW
1594 5E           1196          POP     SI
1595 BA4458       1197          MOV     DX,5844H
1598 F606ED2302   1198          TEST    BYTE [OPCODE],2
159D 7401         1199          JZ      ADIOD0
159F 92           1200          XCHG    AX,DX
15A0 AB           1201  ADIOD0: STOSW
15A1 B02C         1202          MOV     AL,2CH
15A3 AA           1203          STOSB
15A4 92           1204          XCHG    AX,DX
15A5 AB           1205          STOSW
15A6 C3           1206          RET
15A7 AC           1207  IBAPD:  LODSB
15A8 30E4         1208          XOR     AH,AH
15AA E85EFE       1209          CALL    WHA
15AD B02C         1210          MOV     AL,2CH
15AF AA           1211          STOSB
15B0 B0C0         1212          MOV     AL,0C0H
15B2 E9A6FE       1213          JMP     WDISP
15B5 AD           1214  SEGOFD: LODSW
15B6 50           1215          PUSH    AX
15B7 AD           1216          LODSW
PC-72 ASSEMBLER VERSION 1.05        8086.ASM        42

15B8 E850FE       1217          CALL    WHA
15BB B03A         1218          MOV     AL,3AH
15BD AA           1219          STOSB
15BE 58           1220          POP     AX
15BF E949FE       1221          JMP     WHA
15C2 56           1222  GRPD:   PUSH    SI
15C3 AC           1223          LODSB
15C4 D0E8         1224          SHR     AL,1
15C6 D0E8         1225          SHR     AL,1
15C8 D0E8         1226          SHR     AL,1
15CA 250700       1227          AND     AX,7
15CD 50           1228          PUSH    AX
15CE 89C6         1229          MOV     SI,AX
15D0 01CE         1230          ADD     SI,CX
15D2 8A0C         1231          MOV     CL,[SI]
15D4 BA4E19       1232          MOV     DX,I8086
15D7 E88EF9       1233          CALL    WMN
15DA B009         1234          MOV     AL,9
15DC AA           1235          STOSB
15DD 58           1236          POP     AX
15DE 5E           1237          POP     SI
15DF C3           1238          RET
15E0 B006         1239  ACCMD:  MOV     AL,6
15E2 EB06         1240          JMP     SHORT RMD1
15E4 C606E52310   1241  RWMD:   MOV     BYTE [WADJ],10H
15E9 AC           1242  RMD:    LODSB
15EA 50           1243  RMD1:   PUSH    AX
15EB E83DFE       1244          CALL    WREG
15EE B02C         1245          MOV     AL,2CH
15F0 AA           1246          STOSB
15F1 58           1247          POP     AX
15F2 E966FE       1248          JMP     WDISP
15F5 B9F618       1249  G02D:   MOV     CX,_G02D
15F8 E8C7FF       1250          CALL    GRPD
15FB E83AFE       1251          CALL    WPTR
15FE B02C         1252          MOV     AL,2CH
1600 AA           1253          STOSB
1601 F606ED2302   1254          TEST    BYTE [OPCODE],2
1606 7405         1255          JZ      G02D1
1608 A12819       1256          MOV     AX,[REGS+2]
160B AB           1257          STOSW
160C C3           1258          RET
160D B031         1259  G02D1:  MOV     AL,31H
160F AA           1260          STOSB
1610 C3           1261          RET
1611 B9FE18       1262  G03D:   MOV     CX,_G03D
1614 E8ABFF       1263          CALL    GRPD
1617 FF34         1264          PUSH    WORD [SI]
1619 E81CFE       1265          CALL    WPTR
161C 58           1266          POP     AX
161D A830         1267          TEST    AL,30H
161F 740A         1268          JZ      G03DT
1621 C3           1269          RET
1622 B9EE18       1270  G01D:   MOV     CX,_G01D
1625 E89AFF       1271          CALL    GRPD
1628 E80DFE       1272  RMID:   CALL    WPTR
162B B02C         1273  G03DT:  MOV     AL,2CH
162D AA           1274          STOSB
162E AD           1275          LODSW
162F F606E523FF   1276          TEST    BYTE [WADJ],0FFH
1634 7407         1277          JZ      G03DB
1636 803EED2383   1278          CMP     BYTE [OPCODE],83H
163B 7502         1279          JNZ     G03DW
163D 98           1280  G03DB:  CBW
PC-72 ASSEMBLER VERSION 1.05        8086.ASM        43

163E 4E           1281          DEC     SI
163F E9C9FD       1282  G03DW:  JMP     WHA
1642 B90619       1283  G04D:   MOV     CX,_G04D
1645 E87AFF       1284          CALL    GRPD
1648 3C07         1285          CMP     AL,7
164A 741F         1286          JZ      INVD
164C 3C05         1287          CMP     AL,5
164E 740F         1288          JZ      G04DF
1650 3C04         1289          CMP     AL,4
1652 7413         1290          JZ      DISPD
1654 3C03         1291          CMP     AL,3
1656 7407         1292          JZ      G04DF
1658 3C02         1293          CMP     AL,2
165A 740B         1294          JZ      DISPD
165C E9D9FD       1295          JMP     WPTR
165F B10A         1296  G04DF:  MOV     CL,0AH
1661 BA3E1C       1297          MOV     DX,D8086
1664 E801F9       1298          CALL    WMN
1667 AC           1299  DISPD:  LODSB
1668 E9F0FD       1300          JMP     WDISP
166B B84442       1301  INVD:   MOV     AX,4244H
166E AB           1302          STOSW
166F B80900       1303          MOV     AX,9
1672 AA           1304          STOSB
1673 A0ED23       1305          MOV     AL,[OPCODE]
1676 E992FD       1306          JMP     WHA
1679 90           1307          EVEN
167A F912C40F7D0F 1308  IHDL    DW      G0,G1,G2,G3
1680 2B10
1682 6B106111BF10 1309          DW      G4,G5,G6,G7
1688 3D12
168A 8B119511BC0B 1310          DW      G8,G9,G0AH,G0BH
1690 D412
1692 5A1271120F12 1311          DW      G0CH,G0DH,G0EH,G0FH
1698 9F12
169A FA1209132A13 1312  AHDL    DW      D0,D1,D2,D3
16A0 3013
16A2 39135B0C4213 1313          DW      D4,D5,D6,D7
16A8 2713
16AA 5D131913     1314          DW      D8,D9
16AE 2214E915CB14 1315  DHDL    DW      MRD,RMD,ACCID
16B4 D314C414C214 1316          DW      PSRD,SPREFD,SINGD
16BA 0E156B16DF13 1317          DW      REGWD,INVD,RELBD
16C0 221611164216 1318          DW      G01D,G03D,G04D
16C6 E514F6146716 1319          DW      MSD,SMD,DISPD
16CC 0715B515E015 1320          DW      ACCRD,SEGOFD,ACCMD
16D2 1E141B158615 1321          DW      MACCD,RIMMD,RETD
16D8 E41528167515 1322          DW      RWMD,RMID,RETFD
16DE 71156B15F515 1323          DW      INT3D,INTD,G02D
16E4 44154F15A715 1324          DW      AAMD,ESCD,IBAPD
16EA 35158A15     1325          DW      RELWD,ADIOD
16EE 000100010202 1326  HDL86   DB      0,1,0,1,2,2,3,3
16F4 0303
16F6 000100010202 1327          DB      0,1,0,1,2,2,3,3
16FC 0303
16FE 000100010202 1328          DB      0,1,0,1,2,2,3,3
1704 0303
1706 000100010202 1329          DB      0,1,0,1,2,2,3,3
170C 0303
170E 000100010202 1330          DB      0,1,0,1,2,2,4,5
1714 0405
1716 000100010202 1331          DB      0,1,0,1,2,2,4,5
171C 0405
171E 000100010202 1332          DB      0,1,0,1,2,2,4,5
PC-72 ASSEMBLER VERSION 1.05        8086.ASM        44

1724 0405
1726 000100010202 1333          DB      0,1,0,1,2,2,4,5
172C 0405
172E 060606060606 1334          DB      6,6,6,6,6,6,6,6
1734 0606
1736 060606060606 1335          DB      6,6,6,6,6,6,6,6
173C 0606
173E 060606060606 1336          DB      6,6,6,6,6,6,6,6
1744 0606
1746 060606060606 1337          DB      6,6,6,6,6,6,6,6
174C 0606
174E 070707070707 1338          DB      7,7,7,7,7,7,7,7
1754 0707
1756 070707070707 1339          DB      7,7,7,7,7,7,7,7
175C 0707
175E 080808080808 1340          DB      8,8,8,8,8,8,8,8
1764 0808
1766 080808080808 1341          DB      8,8,8,8,8,8,8,8
176C 0808
176E 090909090101 1342          DB      9,9,9,9,1,1,1,1
1774 0101
1776 00000101     1343          DB      0,0,1,1
177A 0C010D0E     1344          DB      0CH,01H,0DH,0EH
177E 050F0F0F     1345          DB      05H,0FH,0FH,0FH
1782 0F0F0F0F     1346          DB      0FH,0FH,0FH,0FH
1786 05051005     1347          DB      05H,05H,10H,05H
178A 05050505     1348          DB      05H,05H,05H,05H
178E 11111212     1349          DB      11H,11H,12H,12H
1792 05050505     1350          DB      05H,05H,05H,05H
1796 02020505     1351          DB      02H,02H,05H,05H
179A 05050505     1352          DB      05H,05H,05H,05H
179E 13131313     1353          DB      13H,13H,13H,13H
17A2 13131313     1354          DB      13H,13H,13H,13H
17A6 13131313     1355          DB      13H,13H,13H,13H
17AA 13131313     1356          DB      13H,13H,13H,13H
17AE 07071405     1357          DB      07H,07H,14H,05H
17B2 15011616     1358          DB      15H,01H,16H,16H
17B6 07071717     1359          DB      07H,07H,17H,17H
17BA 18190505     1360          DB      18H,19H,05H,05H
17BE 1A1A1A1A     1361          DB      1AH,1AH,1AH,1AH
17C2 1B1B0707     1362          DB      1BH,1BH,07H,07H
17C6 1C1C1C1C     1363          DB      1CH,1CH,1CH,1CH
17CA 1C1C1C1C     1364          DB      1CH,1CH,1CH,1CH
17CE 08080808     1365          DB      08H,08H,08H,08H
17D2 02021D1D     1366          DB      02H,02H,1DH,1DH
17D6 1E1E1008     1367          DB      1EH,1EH,10H,08H
17DA 1F1F1F1F     1368          DB      1FH,1FH,1FH,1FH
17DE 04070404     1369          DB      04H,07H,04H,04H
17E2 05050A0A     1370          DB      05H,05H,0AH,0AH
17E6 05050505     1371          DB      05H,05H,05H,05H
17EA 05050B0B     1372          DB      05H,05H,0BH,0BH
17EE 05050505     1373  BIN86   DB      05H,05H,05H,05H
17F2 05055553     1374          DB      05H,05H,55H,53H
17F6 51515151     1375          DB      51H,51H,51H,51H
17FA 51515553     1376          DB      51H,51H,55H,53H
17FE 04040404     1377          DB      04H,04H,04H,04H
1802 04045553     1378          DB      04H,04H,55H,53H
1806 65656565     1379          DB      65H,65H,65H,65H
180A 65655553     1380          DB      65H,65H,55H,53H
180E 06060606     1381          DB      06H,06H,06H,06H
1812 06067F11     1382          DB      06H,06H,7FH,11H
1816 6F6F6F6F     1383          DB      6FH,6FH,6FH,6FH
181A 6F6F7F12     1384          DB      6FH,6FH,7FH,12H
181E 74747474     1385          DB      74H,74H,74H,74H
PC-72 ASSEMBLER VERSION 1.05        8086.ASM        45

1822 74747F00     1386          DB      74H,74H,7FH,00H
1826 0D0D0D0D     1387          DB      0DH,0DH,0DH,0DH
182A 0D0D7F03     1388          DB      0DH,0DH,7FH,03H
182E 1A1A1A1A     1389          DB      1AH,1AH,1AH,1AH
1832 1A1A1A1A     1390          DB      1AH,1AH,1AH,1AH
1836 13131313     1391          DB      13H,13H,13H,13H
183A 13131313     1392          DB      13H,13H,13H,13H
183E 55555555     1393          DB      55H,55H,55H,55H
1842 55555555     1394          DB      55H,55H,55H,55H
1846 53535353     1395          DB      53H,53H,53H,53H
184A 53535353     1396          DB      53H,53H,53H,53H
184E 7F7F7F7F     1397          DB      7FH,7FH,7FH,7FH
1852 7F7F7F7F     1398          DB      7FH,7FH,7FH,7FH
1856 7F7F7F7F     1399          DB      7FH,7FH,7FH,7FH
185A 7F7F7F7F     1400          DB      7FH,7FH,7FH,7FH
185E 3834222E     1401          DB      38H,34H,22H,2EH
1862 3D372C1E     1402          DB      3DH,37H,2CH,1EH
1866 3C363935     1403          DB      3CH,36H,39H,35H
186A 27323025     1404          DB      27H,32H,30H,25H
186E 7F7F7F7F     1405          DB      7FH,7FH,7FH,7FH
1872 70707272     1406          DB      70H,70H,72H,72H
1876 4A4A4A4A     1407          DB      4AH,4AH,4AH,4AH
187A 4A404A53     1408          DB      4AH,40H,4AH,53H
187E 4F727272     1409          DB      4FH,72H,72H,72H
1882 72727272     1410          DB      72H,72H,72H,72H
1886 08100771     1411          DB      08H,10H,07H,71H
188A 5654613E     1412          DB      56H,54H,61H,3EH
188E 4A4A4A4A     1413          DB      4AH,4AH,4AH,4AH
1892 4B4C0E0F     1414          DB      4BH,4CH,0EH,0FH
1896 70706D6E     1415          DB      70H,70H,6DH,6EH
189A 43446667     1416          DB      43H,44H,66H,67H
189E 4A4A4A4A     1417          DB      4AH,4AH,4AH,4AH
18A2 4A4A4A4A     1418          DB      4AH,4AH,4AH,4AH
18A6 4A4A4A4A     1419          DB      4AH,4AH,4AH,4AH
18AA 4A4A4A4A     1420          DB      4AH,4AH,4AH,4AH
18AE 7F7F5E5E     1421          DB      7FH,7FH,5EH,5EH
18B2 413F4A4A     1422          DB      41H,3FH,4AH,4AH
18B6 7F7F5E5E     1423          DB      7FH,7FH,5EH,5EH
18BA 1B1B1C1D     1424          DB      1BH,1BH,1CH,1DH
18BE 7F7F7F7F     1425          DB      7FH,7FH,7FH,7FH
18C2 02016373     1426          DB      02H,01H,63H,73H
18C6 15151515     1427          DB      15H,15H,15H,15H
18CA 15151515     1428          DB      15H,15H,15H,15H
18CE 48494523     1429          DB      48H,49H,45H,23H
18D2 19195252     1430          DB      19H,19H,52H,52H
18D6 07292929     1431          DB      07H,29H,29H,29H
18DA 19195252     1432          DB      19H,19H,52H,52H
18DE 427F5C5D     1433          DB      42H,7FH,5CH,5DH
18E2 160C7F7F     1434          DB      16H,0CH,7FH,7FH
18E6 096A0B6B     1435          DB      09H,6AH,0BH,6BH
18EA 0A6C7F7F     1436          DB      0AH,6CH,7FH,7FH
18EE 05510465     1437  _G01D   DB      05H,51H,04H,65H
18F2 066F740D     1438          DB      06H,6FH,74H,0DH
18F6 5F605758     1439  _G02D   DB      5FH,60H,57H,58H
18FA 68696264     1440          DB      68H,69H,62H,64H
18FE 6060504E     1441  _G03D   DB      60H,60H,50H,4EH
1902 4F181417     1442          DB      4FH,18H,14H,17H
1906 1A130707     1443  _G04D   DB      1AH,13H,07H,07H
190A 2929557F     1444          DB      29H,29H,55H,7FH
190E C6E6CAEA     1445  _DISP   DB      0C6H,0E6H,0CAH,0EAH
1912 0C0E0A06     1446          DB      0CH,0EH,0AH,6
1916 0E0706FF     1447  RM      DB      0EH,7,6,0FFH
191A 050103FF     1448          DB      5,1,3,0FFH
191E 040002FF     1449          DB      4,0,2,0FFH
PC-72 ASSEMBLER VERSION 1.05        8086.ASM        46

1922 FFFFFFFF     1450          DB      0FFH,0FFH,0FFH,0FFH
1926 414C434C444C 1451  REGS    DB      "ALCLDLBLAHCHDHBH"
192C 424C41484348
1932 44484248
1936 415843584458 1452          DB      "AXCXDXBXSPBPSIDI"
193C 425853504250
1942 53494449
1946 455343535353 1453          DB      "ESCSSSDS"
194C 4453
194E 7500         1454  I8086   DW      117
1950 034141413700 1455          DB      3,"AAA",37H,0
1956 03414144D507 1456          DB      3,"AAD",0D5H,7
195C 0341414DD407 1457          DB      3,"AAM",0D4H,7
1962 034141533F00 1458          DB      3,"AAS",3FH,0
1968 034144431001 1459          DB      3,"ADC",10H,1
196E 034144440001 1460          DB      3,"ADD",0,1
1974 03414E442001 1461          DB      3,"AND",20H,1
197A 0443414C4C00 1462          DB      4,"CALL",0,6
1980 06
1981 034342579800 1463          DB      3,"CBW",98H,0
1987 03434C43F800 1464          DB      3,"CLC",0F8H,0
198D 03434C44FC00 1465          DB      3,"CLD",0FCH,0
1993 03434C49FA00 1466          DB      3,"CLI",0FAH,0
1999 03434D43F500 1467          DB      3,"CMC",0F5H,0
199F 03434D503801 1468          DB      3,"CMP",38H,1
19A5 05434D505342 1469          DB      5,"CMPSB",0A6H,0
19AB A600
19AD 05434D505357 1470          DB      5,"CMPSW",0A7H,0
19B3 A700
19B5 034357449900 1471          DB      3,"CWD",99H,0
19BB 034441412700 1472          DB      3,"DAA",27H,0
19C1 034441532F00 1473          DB      3,"DAS",2FH,0
19C7 034445430804 1474          DB      3,"DEC",8,4
19CD 034449563003 1475          DB      3,"DIV",30H,3
19D3 03455343D80E 1476          DB      3,"ESC",0D8H,0EH
19D9 03484C54F400 1477          DB      3,"HLT",0F4H,0
19DF 044944495638 1478          DB      4,"IDIV",38H,3
19E5 03
19E6 04494D554C28 1479          DB      4,"IMUL",28H,3
19EC 03
19ED 02494EE40D   1480          DB      2,"IN",0E4H,0DH
19F2 03494E430004 1481          DB      3,"INC",0,4
19F8 03494E54CD0C 1482          DB      3,"INT",0CDH,0CH
19FE 04494E544FCE 1483          DB      4,"INTO",0CEH,0
1A04 00
1A05 0449524554CF 1484          DB      4,"IRET",0CFH,0
1A0B 00
1A0C 024A417705   1485          DB      2,"JA",77H,5
1A11 034A41457305 1486          DB      3,"JAE",73H,5
1A17 024A427205   1487          DB      2,"JB",72H,5
1A1C 034A42457605 1488          DB      3,"JBE",76H,5
1A22 024A437205   1489          DB      2,"JC",72H,5
1A27 044A43585AE3 1490          DB      4,"JCXZ",0E3H,5
1A2D 05
1A2E 024A457405   1491          DB      2,"JE",74H,5
1A33 024A477F05   1492          DB      2,"JG",7FH,5
1A38 034A47457D05 1493          DB      3,"JGE",7DH,5
1A3E 024A4C7C05   1494          DB      2,"JL",7CH,5
1A43 034A4C457E05 1495          DB      3,"JLE",7EH,5
1A49 034A4D500106 1496          DB      3,"JMP",1,6
1A4F 034A4E417605 1497          DB      3,"JNA",76H,5
1A55 044A4E414572 1498          DB      4,"JNAE",72H,5
1A5B 05
1A5C 034A4E427305 1499          DB      3,"JNB",73H,5
PC-72 ASSEMBLER VERSION 1.05        8086.ASM        47

1A62 044A4E424577 1500          DB      4,"JNBE",77H,5
1A68 05
1A69 034A4E437305 1501          DB      3,"JNC",73H,5
1A6F 034A4E457505 1502          DB      3,"JNE",75H,5
1A75 034A4E477E05 1503          DB      3,"JNG",7EH,5
1A7B 044A4E47457C 1504          DB      4,"JNGE",7CH,5
1A81 05
1A82 034A4E4C7D05 1505          DB      3,"JNL",7DH,5
1A88 044A4E4C457F 1506          DB      4,"JNLE",7FH,5
1A8E 05
1A8F 034A4E4F7105 1507          DB      3,"JNO",71H,5
1A95 034A4E507B05 1508          DB      3,"JNP",7BH,5
1A9B 034A4E537905 1509          DB      3,"JNS",79H,5
1AA1 034A4E5A7505 1510          DB      3,"JNZ",75H,5
1AA7 024A4F7005   1511          DB      2,"JO",70H,5
1AAC 024A507A05   1512          DB      2,"JP",7AH,5
1AB1 034A50457A05 1513          DB      3,"JPE",7AH,5
1AB7 034A504F7B05 1514          DB      3,"JPO",7BH,5
1ABD 024A537805   1515          DB      2,"JS",78H,5
1AC2 024A5A7405   1516          DB      2,"JZ",74H,5
1AC7 044C4148469F 1517          DB      4,"LAHF",9FH,0
1ACD 00
1ACE 034C4453C508 1518          DB      3,"LDS",0C5H,8
1AD4 034C45418D08 1519          DB      3,"LEA",8DH,8
1ADA 034C4553C408 1520          DB      3,"LES",0C4H,8
1AE0 044C4F434BF0 1521          DB      4,"LOCK",0F0H,0AH
1AE6 0A
1AE7 054C4F445342 1522          DB      5,"LODSB",0ACH,0
1AED AC00
1AEF 054C4F445357 1523          DB      5,"LODSW",0ADH,0
1AF5 AD00
1AF7 044C4F4F50E2 1524          DB      4,"LOOP",0E2H,5
1AFD 05
1AFE 054C4F4F5045 1525          DB      5,"LOOPE",0E1H,5
1B04 E105
1B06 064C4F4F504E 1526          DB      6,"LOOPNE",0E0H,5
1B0C 45E005
1B0F 064C4F4F504E 1527          DB      6,"LOOPNZ",0E0H,5
1B15 5AE005
1B18 054C4F4F505A 1528          DB      5,"LOOPZ",0E1H,5
1B1E E105
1B20 034D4F568809 1529          DB      3,"MOV",88H,9
1B26 054D4F565342 1530          DB      5,"MOVSB",0A4H,0
1B2C A400
1B2E 054D4F565357 1531          DB      5,"MOVSW",0A5H,0
1B34 A500
1B36 034D554C2003 1532          DB      3,"MUL",20H,3
1B3C 034E45471803 1533          DB      3,"NEG",18H,3
1B42 034E4F509000 1534          DB      3,"NOP",90H,0
1B48 034E4F541003 1535          DB      3,"NOT",10H,3
1B4E 024F520801   1536          DB      2,"OR",8,1
1B53 034F5554E60D 1537          DB      3,"OUT",0E6H,0DH
1B59 03504F503804 1538          DB      3,"POP",38H,4
1B5F 04504F50469D 1539          DB      4,"POPF",9DH,0
1B65 00
1B66 045055534830 1540          DB      4,"PUSH",30H,4
1B6C 04
1B6D 055055534846 1541          DB      5,"PUSHF",9CH,0
1B73 9C00
1B75 0352434C1002 1542          DB      3,"RCL",10H,2
1B7B 035243521802 1543          DB      3,"RCR",18H,2
1B81 03524550F30A 1544          DB      3,"REP",0F3H,0AH
1B87 0452455045F3 1545          DB      4,"REPE",0F3H,0AH
1B8D 0A
PC-72 ASSEMBLER VERSION 1.05        8086.ASM        48

1B8E 055245504E45 1546          DB      5,"REPNE",0F2H,0AH
1B94 F20A
1B96 055245504E5A 1547          DB      5,"REPNZ",0F2H,0AH
1B9C F20A
1B9E 045245505AF3 1548          DB      4,"REPZ",0F3H,0AH
1BA4 0A
1BA5 03524554C30B 1549          DB      3,"RET",0C3H,0BH
1BAB 03524F4C0002 1550          DB      3,"ROL",0,2
1BB1 03524F520802 1551          DB      3,"ROR",8,2
1BB7 04534148469E 1552          DB      4,"SAHF",9EH,0
1BBD 00
1BBE 0353414C3002 1553          DB      3,"SAL",30H,2
1BC4 0453414C43D6 1554          DB      4,"SALC",0D6H,0
1BCA 00
1BCB 035341523802 1555          DB      3,"SAR",38H,2
1BD1 035342421801 1556          DB      3,"SBB",18H,1
1BD7 055343415342 1557          DB      5,"SCASB",0AEH,0
1BDD AE00
1BDF 055343415357 1558          DB      5,"SCASW",0AFH,0
1BE5 AF00
1BE7 0353484C2002 1559          DB      3,"SHL",20H,2
1BED 035348522802 1560          DB      3,"SHR",28H,2
1BF3 03535443F900 1561          DB      3,"STC",0F9H,0
1BF9 03535444FD00 1562          DB      3,"STD",0FDH,0
1BFF 03535449FB00 1563          DB      3,"STI",0FBH,0
1C05 0553544F5342 1564          DB      5,"STOSB",0AAH,0
1C0B AA00
1C0D 0553544F5357 1565          DB      5,"STOSW",0ABH,0
1C13 AB00
1C15 035355422801 1566          DB      3,"SUB",28H,1
1C1B 045445535400 1567          DB      4,"TEST",0,3
1C21 03
1C22 04574149549B 1568          DB      4,"WAIT",9BH,0
1C28 00
1C29 045843484786 1569          DB      4,"XCHG",86H,0FH
1C2F 0F
1C30 05584C415442 1570          DB      5,"XLATB",0D7H,0
1C36 D700
1C38 03584F523001 1571          DB      3,"XOR",30H,1
1C3E 1700         1572  D8086   DW      23
1C40 044259544501 1573          DB      4,"BYTE",1,5
1C46 05
1C47 0244420104   1574          DB      2,"DB",1,4
1C4C 0244440404   1575          DB      2,"DD",4,4
1C51 0244530006   1576          DB      2,"DS",0,6
1C56 0244570204   1577          DB      2,"DW",2,4
1C5B 0544574F5244 1578          DB      5,"DWORD",3,5
1C61 0305
1C63 044543484FFC 1579          DB      4,"ECHO",0FCH,8
1C69 08
1C6A 03454E44FF02 1580          DB      3,"END",0FFH,2
1C70 034551550001 1581          DB      3,"EQU",0,1
1C76 044556454E90 1582          DB      4,"EVEN",90H,0
1C7C 00
1C7D 034641520A05 1583          DB      3,"FAR",0AH,5
1C83 06494E434249 1584          DB      6,"INCBIN",0FDH,7
1C89 4EFD07
1C8C 07494E434C55 1585          DB      7,"INCLUDE",0FEH,7
1C92 4445FE07
1C96 044849474813 1586          DB      4,"HIGH",13H,5
1C9C 05
1C9D 034C4F571205 1587          DB      3,"LOW",12H,5
1CA3 044E45415209 1588          DB      4,"NEAR",9,5
1CA9 05
PC-72 ASSEMBLER VERSION 1.05        8086.ASM        49

1CAA 064F46465345 1589          DB      6,"OFFSET",11H,5
1CB0 541105
1CB3 034F52470003 1590          DB      3,"ORG",0,3
1CB9 035054521005 1591          DB      3,"PTR",10H,5
1CBF 0553484F5254 1592          DB      5,"SHORT",8,5
1CC5 0805
1CC7 055449544C45 1593          DB      5,"TITLE",0FBH,7
1CCD FB07
1CCF 04574F524402 1594          DB      4,"WORD",2,5
1CD5 05
1CD6 0450414745FA 1595          DB      4,"PAGE",0FAH,9
1CDC 09
PC-72 ASSEMBLER VERSION 1.05        A72.ASM         50

1CDD 0001         875   ORIGIN  DW      DEFORG
1CDF 3200         876   PAGLEN  DW      DEFPAG
1CE1 B507BF070308 877   ADIR    DW      P2,P3,P4,P5
1CE7 0808
1CE9 1508         878           DW      P6
1CEB 50432D373220 879   PGTTL:  DB      "PC-72 ASSEMBLER"
1CF1 415353454D42
1CF7 4C4552
1CFA 205645525349 880           DB      " VERSION 1.05",0
1D00 4F4E20312E30
1D06 3500
1D08 494E56414C49 881   EM0     DB      "INVALID OPERAND",0
1D0E 44204F504552
1D14 414E4400
1D18 53594E544158 882   EM1     DB      "SYNTAX ERROR",0
1D1E 204552524F52
1D24 00
1D25 494E56414C49 883   EM2     DB      "INVALID ADDRESSING",0
1D2B 442041444452
1D31 455353494E47
1D37 00
1D38 494E56414C49 884   EM3     DB      "INVALID INSTRUCTION",0
1D3E 4420494E5354
1D44 52554354494F
1D4A 4E00
1D4C 554E44454649 885   EM4     DB      "UNDEFINED SYMBOL",0
1D52 4E4544205359
1D58 4D424F4C00
1D5D 204259544528 886   EM5     DB      " BYTE(S) OUT OF RANGE",0
1D63 5329204F5554
1D69 204F46205241
1D6F 4E474500
1D73 4F504552414E 887   EM6     DB      "OPERAND SIZE MISMATCH",0
1D79 442053495A45
1D7F 204D49534D41
1D85 54434800
1D89 434F4E535441 888   EM7     DB      "CONSTANT TOO LARGE",0
1D8F 4E5420544F4F
1D95 204C41524745
1D9B 00
1D9C 4D495353494E 889   EM8     DB      "MISSING OPERAND",0
1DA2 47204F504552
1DA8 414E4400
1DAC 474152424147 890   EM9     DB      "GARBAGE PAST END",0
1DB2 452050415354
1DB8 20454E4400
1DBD 4455504C4943 891   EMA     DB      "DUPLICATE SYMBOL",0
1DC3 415445205359
1DC9 4D424F4C00
1DCE 204E4F542041 892   EMB     DB      " NOT ACCESSIBLE",0
1DD4 434345535349
1DDA 424C4500
1DDE 524553455256 893   EMC     DB      "RESERVED WORD MISUSE",0
1DE4 454420574F52
1DEA 44204D495355
1DF0 534500
1DF3 494E56414C49 894   EMD     DB      "INVALID REGISTER",0
1DF9 442052454749
1DFF 5354455200
1E04 4C494E452054 895   EME     DB      "LINE TOO LONG",0
1E0A 4F4F204C4F4E
1E10 4700
1E12 2046494C4520 896   EMF     DB      " FILE I/O ERROR",0
1E18 492F4F204552
PC-72 ASSEMBLER VERSION 1.05        A72.ASM         51

1E1E 524F5200
1E22 41534D00     897   DOTASM  DB      "ASM",0
1E26 434F4D00     898   DOTCOM  DB      "COM",0
1E2A 4C535400     899   DOTLST  DB      "LST",0
1E2E 504153532000 900   PASSM   DB      "PASS ",0
1E34 494E3A2000   901   INM     DB      "IN: ",0
1E39 4F55543A2000 902   OUTM    DB      "OUT: ",0
1E3F 50432D373220 903   AMSG    DB      "PC-72 ASSEMBLER V1.05"
1E45 415353454D42
1E4B 4C4552205631
1E51 2E3035
1E54 20464F522044 904           DB      " FOR DOS",13,10,36
1E5A 4F530D0A24
1E5F 42414420444F 905   DOSERR  DB      "BAD DOS VERSION"
1E65 532056455253
1E6B 494F4E
1E6E 0D0A24       906           DB      13,10,36
1E71 4D495353494E 907   NOPAR   DB      "MISSING PARAMETER"
1E77 472050415241
1E7D 4D45544552
1E82 0D0A24       908           DB      13,10,36
1E85 41373220494E 909   USAGE   DB      "A72 IN [/SWITCH [OUT]"
1E8B 205B2F535749
1E91 544348205B4F
1E97 55545D
1E9A 205B2F535749 910           DB      " [/SWITCH [OUT]] ...]"
1EA0 544348205B4F
1EA6 55545D5D202E
1EAC 2E2E5D
1EAF 0D0A         911           DB      13,10
1EB1 2F41205B4F55 912           DB      "/A [OUT[.COM]]",9
1EB7 545B2E434F4D
1EBD 5D5D09
1EC0 415353454D42 913           DB      "ASSEMBLE TO BINARY"
1EC6 4C4520544F20
1ECC 42494E415259
1ED2 0D0A         914           DB      13,10
1ED4 2F44205B4F55 915           DB      "/D [OUT[.ASM]]",9
1EDA 545B2E41534D
1EE0 5D5D09
1EE3 444953415353 916           DB      "DISASSEMBLE WITH HEX"
1EE9 454D424C4520
1EEF 574954482048
1EF5 4558
1EF7 0D0A         917           DB      13,10
1EF9 2F4C205B4F55 918           DB      "/L [OUT[.LST]]",9
1EFF 545B2E4C5354
1F05 5D5D09
1F08 415353454D42 919           DB      "ASSEMBLE TO LISTING"
1F0E 4C4520544F20
1F14 4C495354494E
1F1A 47
1F1B 0D0A         920           DB      13,10
1F1D 2F4F20313030 921           DB      "/O 100H",9,9
1F23 480909
1F26 534554204F52 922           DB      "SET ORIGIN"
1F2C 4947494E
1F30 0D0A         923           DB      13,10
1F32 2F55205B4F55 924           DB      "/U [OUT[.ASM]]",9
1F38 545B2E41534D
1F3E 5D5D09
1F41 444953415353 925           DB      "DISASSEMBLE PLAIN"
1F47 454D424C4520
1F4D 504C41494E
PC-72 ASSEMBLER VERSION 1.05        A72.ASM         52

1F52 0D0A         926           DB      13,10
1F54 24           927           DB      36
1F55              928   BUF1    DS      MAXLEN
2055              929   BUF2    DS      100H
2155              930   BUF3    DS      100H
2255              931   BUF4    DS      100H
2355              932   BUF5    DS      100H
2455              933   BUF6    DS      100H
2555              934   BUF7    DS      100H
2655              935   INCBUF  DS      100H
2755              936   SYMBS:
